(dp0
S'team-game-data'
p1
(lp2
(dp3
V_type
p4
Vteam
p5
sV_id
p6
V254
p7
sV_source
p8
(dp9
VunwantedGames
p10
(lp11
sVreviewedGames
p12
(lp13
I1
aI2
asVimportantGames
p14
(lp15
ssV_index
p16
Vteam-game-data
p17
sa(dp18
V_type
p19
Vteam
p20
sV_id
p21
V222
p22
sV_source
p23
(dp24
VunwantedGames
p25
(lp26
sVreviewedGames
p27
(lp28
I2
asVimportantGames
p29
(lp30
ssV_index
p31
Vteam-game-data
p32
sa(dp33
V_type
p34
Vteam
p35
sV_id
p36
V333
p37
sV_source
p38
(dp39
VunwantedGames
p40
(lp41
sVreviewedGames
p42
(lp43
I2
asVimportantGames
p44
(lp45
ssV_index
p46
Vteam-game-data
p47
sa(dp48
V_type
p49
Vteam
p50
sV_id
p51
V4590
p52
sV_source
p53
(dp54
VunwantedGames
p55
(lp56
sVreviewedGames
p57
(lp58
I1
aI2
asVimportantGames
p59
(lp60
ssV_index
p61
Vteam-game-data
p62
sasS'games_mapping'
p63
(dp64
Vgames
p65
(dp66
Vmappings
p67
(dp68
V_default_
p69
(dp70
Vproperties
p71
(dp72
VredTeamScore
p73
(dp74
Vtype
p75
Vinteger
p76
ssVblueTeamScore
p77
(dp78
Vtype
p79
Vinteger
p80
ssVgameId
p81
(dp82
Vtype
p83
Vinteger
p84
ssVblueTeams
p85
(dp86
Vtype
p87
Vinteger
p88
ssVcompetition
p89
(dp90
Vtype
p91
Vkeyword
p92
ssVcomments
p93
(dp94
Vtype
p95
Vtext
p96
ssVwinningAlliance
p97
(dp98
Vtype
p99
Vkeyword
p100
ssVredTeams
p101
(dp102
Vtype
p103
Vinteger
p104
ssssVPractice
p105
(dp106
Vproperties
p107
(dp108
VredTeamScore
p109
(dp110
Vtype
p111
Vinteger
p112
ssVblueTeamScore
p113
(dp114
Vtype
p115
Vinteger
p116
ssVgameId
p117
(dp118
Vtype
p119
Vinteger
p120
ssVblueTeams
p121
(dp122
Vtype
p123
Vinteger
p124
ssVcompetition
p125
(dp126
Vtype
p127
Vkeyword
p128
ssVcomments
p129
(dp130
Vtype
p131
Vtext
p132
ssVdate
p133
(dp134
Vtype
p135
Vlong
p136
ssVwinningAlliance
p137
(dp138
Vtype
p139
Vkeyword
p140
ssVredTeams
p141
(dp142
Vtype
p143
Vinteger
p144
ssssVPlayoffs
p145
(dp146
Vproperties
p147
(dp148
VredTeamScore
p149
(dp150
Vtype
p151
Vinteger
p152
ssVblueTeamScore
p153
(dp154
Vtype
p155
Vinteger
p156
ssVgameId
p157
(dp158
Vtype
p159
Vinteger
p160
ssVblueTeams
p161
(dp162
Vtype
p163
Vinteger
p164
ssVcompetition
p165
(dp166
Vtype
p167
Vkeyword
p168
ssVcomments
p169
(dp170
Vtype
p171
Vtext
p172
ssVdate
p173
(dp174
Vtype
p175
Vlong
p176
ssVwinningAlliance
p177
(dp178
Vtype
p179
Vkeyword
p180
ssVredTeams
p181
(dp182
Vtype
p183
Vinteger
p184
sssssssS'team_game_data_mapping'
p185
(dp186
Vteam-game-data
p187
(dp188
Vmappings
p189
(dp190
V_default_
p191
(dp192
Vproperties
p193
(dp194
VunwantedGames
p195
(dp196
Vtype
p197
Vinteger
p198
ssVimportantGames
p199
(dp200
Vtype
p201
Vinteger
p202
ssVreviewedGames
p203
(dp204
Vtype
p205
Vinteger
p206
ssssVteam
p207
(dp208
Vproperties
p209
(dp210
VunwantedGames
p211
(dp212
Vtype
p213
Vinteger
p214
ssVimportantGames
p215
(dp216
Vtype
p217
Vinteger
p218
ssVreviewedGames
p219
(dp220
Vtype
p221
Vinteger
p222
sssssssS'games'
p223
(lp224
(dp225
V_type
p226
VPractice
p227
sV_id
p228
V2
p229
sV_source
p230
(dp231
VgameId
p232
g229
sVblueTeams
p233
(lp234
V4590
p235
aV254
p236
aV333
p237
asVcompetition
p238
Vhouston
p239
sVcomments
p240
V
p241
sVdate
p242
I1576690352
sVredTeams
p243
(lp244
V111
p245
aV222
p246
aV333
p247
assV_index
p248
Vgames
p249
sa(dp250
V_type
p251
VPlayoffs
p252
sV_id
p253
V1
p254
sV_source
p255
(dp256
VgameId
p257
g254
sVblueTeams
p258
(lp259
V4590
p260
aV254
p261
aV148
p262
asVcompetition
p263
Vhouston
p264
sVcomments
p265
g241
sVdate
p266
I1576431374
sVredTeams
p267
(lp268
V1573
p269
aV3316
p270
aV3339
p271
assV_index
p272
Vgames
p273
sasS'.kibana'
p274
(lp275
(dp276
V_type
p277
Vconfig
p278
sV_id
p279
V5.6.16
p280
sV_source
p281
(dp282
VbuildNum
p283
I15690
ssV_index
p284
V.kibana
p285
sasS'events_mapping'
p286
(dp287
Vevents
p288
(dp289
Vmappings
p290
(dp291
Vcomment
p292
(dp293
Vproperties
p294
(dp295
VeventName
p296
(dp297
Vtype
p298
Vkeyword
p299
ssVgameId
p300
(dp301
Vtype
p302
Vinteger
p303
ssVteamNumber
p304
(dp305
Vtype
p306
Vinteger
p307
ssVtimeTook
p308
(dp309
Vtype
p310
Vlong
p311
ssVcompetition
p312
(dp313
Vtype
p314
Vkeyword
p315
ssVcontent
p316
(dp317
Vtype
p318
Vtext
p319
ssVstartTime
p320
(dp321
Vtype
p322
Vinteger
p323
ssVendTime
p324
(dp325
Vtype
p326
Vinteger
p327
ssssVCargo
p328
(dp329
Vproperties
p330
(dp331
VmatchPart
p332
(dp333
Vtype
p334
Vkeyword
p335
ssVgameId
p336
(dp337
Vtype
p338
Vinteger
p339
ssVstartTime
p340
(dp341
Vtype
p342
Vinteger
p343
ssVtimeTook
p344
(dp345
Vtype
p346
Vlong
p347
ssVtimeTookPlace
p348
(dp349
Vtype
p350
Vlong
p351
ssVplaceStatus
p352
(dp353
Vfields
p354
(dp355
Vkeyword
p356
(dp357
Vignore_above
p358
I256
sVtype
p359
Vkeyword
p360
sssVtype
p361
Vtext
p362
ssVplaceLocation
p363
(dp364
Vfields
p365
(dp366
Vkeyword
p367
(dp368
Vignore_above
p369
I256
sVtype
p370
Vkeyword
p371
sssVtype
p372
Vtext
p373
ssVtimeTookPickup
p374
(dp375
Vtype
p376
Vlong
p377
ssVplaceStartTime
p378
(dp379
Vtype
p380
Vlong
p381
ssVpickupLocation
p382
(dp383
Vfields
p384
(dp385
Vkeyword
p386
(dp387
Vignore_above
p388
I256
sVtype
p389
Vkeyword
p390
sssVtype
p391
Vtext
p392
ssVendTime
p393
(dp394
Vtype
p395
Vinteger
p396
ssVteamNumber
p397
(dp398
Vtype
p399
Vinteger
p400
ssVpickupStatus
p401
(dp402
Vfields
p403
(dp404
Vkeyword
p405
(dp406
Vignore_above
p407
I256
sVtype
p408
Vkeyword
p409
sssVtype
p410
Vtext
p411
ssVundefined
p412
(dp413
Vfields
p414
(dp415
Vkeyword
p416
(dp417
Vignore_above
p418
I256
sVtype
p419
Vkeyword
p420
sssVtype
p421
Vtext
p422
ssssVautoPowerCell
p423
(dp424
Vproperties
p425
(dp426
VmatchPart
p427
(dp428
Vtype
p429
Vkeyword
p430
ssVgameId
p431
(dp432
Vtype
p433
Vinteger
p434
ssVstartTime
p435
(dp436
Vtype
p437
Vinteger
p438
ssVtimeTook
p439
(dp440
Vtype
p441
Vlong
p442
ssVteamNumber
p443
(dp444
Vtype
p445
Vinteger
p446
ssVendTime
p447
(dp448
Vtype
p449
Vinteger
p450
ssssVFinish
p451
(dp452
Vproperties
p453
(dp454
VmatchPart
p455
(dp456
Vtype
p457
Vkeyword
p458
ssVlifted
p459
(dp460
Vfields
p461
(dp462
Vkeyword
p463
(dp464
Vignore_above
p465
I256
sVtype
p466
Vkeyword
p467
sssVtype
p468
Vtext
p469
ssVgameId
p470
(dp471
Vtype
p472
Vinteger
p473
ssVmainShootLocation
p474
(dp475
Vfields
p476
(dp477
Vkeyword
p478
(dp479
Vignore_above
p480
I256
sVtype
p481
Vkeyword
p482
sssVtype
p483
Vtext
p484
ssVstartTime
p485
(dp486
Vtype
p487
Vinteger
p488
ssVtimeTook
p489
(dp490
Vtype
p491
Vlong
p492
ssVpickUpPlaces
p493
(dp494
Vfields
p495
(dp496
Vkeyword
p497
(dp498
Vignore_above
p499
I256
sVtype
p500
Vkeyword
p501
sssVtype
p502
Vtext
p503
ssVdefense
p504
(dp505
Vfields
p506
(dp507
Vkeyword
p508
(dp509
Vignore_above
p510
I256
sVtype
p511
Vkeyword
p512
sssVtype
p513
Vtext
p514
ssVshutdown
p515
(dp516
Vfields
p517
(dp518
Vkeyword
p519
(dp520
Vignore_above
p521
I256
sVtype
p522
Vkeyword
p523
sssVtype
p524
Vtext
p525
ssVendTime
p526
(dp527
Vtype
p528
Vinteger
p529
ssVplaceCount
p530
(dp531
Vfields
p532
(dp533
Vkeyword
p534
(dp535
Vignore_above
p536
I256
sVtype
p537
Vkeyword
p538
sssVtype
p539
Vtext
p540
ssVteamNumber
p541
(dp542
Vtype
p543
Vinteger
p544
ssVundefined
p545
(dp546
Vfields
p547
(dp548
Vkeyword
p549
(dp550
Vignore_above
p551
I256
sVtype
p552
Vkeyword
p553
sssVtype
p554
Vtext
p555
ssssVteleop_hatch
p556
(dp557
Vproperties
p558
(dp559
VmatchPart
p560
(dp561
Vtype
p562
Vkeyword
p563
ssVgameId
p564
(dp565
Vtype
p566
Vinteger
p567
ssVteamNumber
p568
(dp569
Vtype
p570
Vinteger
p571
ssVtimeTook
p572
(dp573
Vtype
p574
Vlong
p575
ssVplaceStatus
p576
(dp577
Vfields
p578
(dp579
Vkeyword
p580
(dp581
Vignore_above
p582
I256
sVtype
p583
Vkeyword
p584
sssVtype
p585
Vtext
p586
ssVHeight
p587
(dp588
Vfields
p589
(dp590
Vkeyword
p591
(dp592
Vignore_above
p593
I256
sVtype
p594
Vkeyword
p595
sssVtype
p596
Vtext
p597
ssVstartTime
p598
(dp599
Vtype
p600
Vinteger
p601
ssVendTime
p602
(dp603
Vtype
p604
Vinteger
p605
ssVundefined
p606
(dp607
Vfields
p608
(dp609
Vkeyword
p610
(dp611
Vignore_above
p612
I256
sVtype
p613
Vkeyword
p614
sssVtype
p615
Vtext
p616
ssssVgearPlace
p617
(dp618
Vproperties
p619
(dp620
Vstatus
p621
(dp622
Vtype
p623
Vkeyword
p624
ssVmatchPart
p625
(dp626
Vtype
p627
Vkeyword
p628
ssVgameId
p629
(dp630
Vtype
p631
Vinteger
p632
ssVteamNumber
p633
(dp634
Vtype
p635
Vinteger
p636
ssVcompetition
p637
(dp638
Vtype
p639
Vkeyword
p640
ssVfailReason
p641
(dp642
Vtype
p643
Vkeyword
p644
ssVlocation
p645
(dp646
Vtype
p647
Vkeyword
p648
ssVstartTime
p649
(dp650
Vtype
p651
Vinteger
p652
ssVduration
p653
(dp654
Vtype
p655
Vinteger
p656
ssVendTime
p657
(dp658
Vtype
p659
Vinteger
p660
ssssVPowerCells
p661
(dp662
Vproperties
p663
(dp664
VmatchPart
p665
(dp666
Vtype
p667
Vkeyword
p668
ssVendTime
p669
(dp670
Vtype
p671
Vinteger
p672
ssVstartTime
p673
(dp674
Vtype
p675
Vinteger
p676
ssVtimeTook
p677
(dp678
Vtype
p679
Vlong
p680
ssVShot from
p681
(dp682
Vfields
p683
(dp684
Vkeyword
p685
(dp686
Vignore_above
p687
I256
sVtype
p688
Vkeyword
p689
sssVtype
p690
Vtext
p691
ssVundefined
p692
(dp693
Vfields
p694
(dp695
Vkeyword
p696
(dp697
Vignore_above
p698
I256
sVtype
p699
Vkeyword
p700
sssVtype
p701
Vtext
p702
ssVHeight
p703
(dp704
Vfields
p705
(dp706
Vkeyword
p707
(dp708
Vignore_above
p709
I256
sVtype
p710
Vkeyword
p711
sssVtype
p712
Vtext
p713
ssVPickUpSuccess
p714
(dp715
Vfields
p716
(dp717
Vkeyword
p718
(dp719
Vignore_above
p720
I256
sVtype
p721
Vkeyword
p722
sssVtype
p723
Vtext
p724
ssVPickUp
p725
(dp726
Vfields
p727
(dp728
Vkeyword
p729
(dp730
Vignore_above
p731
I256
sVtype
p732
Vkeyword
p733
sssVtype
p734
Vtext
p735
ssVgameId
p736
(dp737
Vtype
p738
Vinteger
p739
ssV2PointSuccess
p740
(dp741
Vfields
p742
(dp743
Vkeyword
p744
(dp745
Vignore_above
p746
I256
sVtype
p747
Vkeyword
p748
sssVtype
p749
Vtext
p750
ssVPowerCellShot
p751
(dp752
Vfields
p753
(dp754
Vkeyword
p755
(dp756
Vignore_above
p757
I256
sVtype
p758
Vkeyword
p759
sssVtype
p760
Vtext
p761
ssVteamNumber
p762
(dp763
Vtype
p764
Vinteger
p765
ssVReasonToMiss
p766
(dp767
Vfields
p768
(dp769
Vkeyword
p770
(dp771
Vignore_above
p772
I256
sVtype
p773
Vkeyword
p774
sssVtype
p775
Vtext
p776
ssV3PointSuccess
p777
(dp778
Vfields
p779
(dp780
Vkeyword
p781
(dp782
Vignore_above
p783
I256
sVtype
p784
Vkeyword
p785
sssVtype
p786
Vtext
p787
ssV1PointSuccess
p788
(dp789
Vfields
p790
(dp791
Vkeyword
p792
(dp793
Vignore_above
p794
I256
sVtype
p795
Vkeyword
p796
sssVtype
p797
Vtext
p798
ssssVfight
p799
(dp800
Vproperties
p801
(dp802
ValliedTeam
p803
(dp804
Vtype
p805
Vinteger
p806
ssVmatchPart
p807
(dp808
Vtype
p809
Vkeyword
p810
ssVtimeTook
p811
(dp812
Vtype
p813
Vlong
p814
ssVgameId
p815
(dp816
Vtype
p817
Vinteger
p818
ssVstartTime
p819
(dp820
Vtype
p821
Vinteger
p822
ssVinitiated
p823
(dp824
Vtype
p825
Vboolean
p826
ssVfailReason
p827
(dp828
Vtype
p829
Vkeyword
p830
ssVcompetition
p831
(dp832
Vtype
p833
Vkeyword
p834
ssVeventName
p835
(dp836
Vtype
p837
Vkeyword
p838
ssVattack
p839
(dp840
Vfields
p841
(dp842
Vkeyword
p843
(dp844
Vignore_above
p845
I256
sVtype
p846
Vkeyword
p847
sssVtype
p848
Vtext
p849
ssVstatus
p850
(dp851
Vtype
p852
Vkeyword
p853
ssVfightReason
p854
(dp855
Vtype
p856
Vkeyword
p857
ssVenemyTeam
p858
(dp859
Vtype
p860
Vinteger
p861
ssVduration
p862
(dp863
Vtype
p864
Vinteger
p865
ssVendTime
p866
(dp867
Vtype
p868
Vinteger
p869
ssVteamNumber
p870
(dp871
Vtype
p872
Vinteger
p873
ssVattackStatus
p874
(dp875
Vfields
p876
(dp877
Vkeyword
p878
(dp879
Vignore_above
p880
I256
sVtype
p881
Vkeyword
p882
sssVtype
p883
Vtext
p884
ssVundefined
p885
(dp886
Vfields
p887
(dp888
Vkeyword
p889
(dp890
Vignore_above
p891
I256
sVtype
p892
Vkeyword
p893
sssVtype
p894
Vtext
p895
ssssVdisabled
p896
(dp897
Vproperties
p898
(dp899
VmatchPart
p900
(dp901
Vtype
p902
Vkeyword
p903
ssVgameId
p904
(dp905
Vtype
p906
Vinteger
p907
ssVteamNumber
p908
(dp909
Vtype
p910
Vinteger
p911
ssVcompetition
p912
(dp913
Vtype
p914
Vkeyword
p915
ssVeventName
p916
(dp917
Vtype
p918
Vkeyword
p919
ssVreason
p920
(dp921
Vtype
p922
Vkeyword
p923
ssVstartTime
p924
(dp925
Vtype
p926
Vinteger
p927
ssVduration
p928
(dp929
Vtype
p930
Vinteger
p931
ssVendTime
p932
(dp933
Vtype
p934
Vinteger
p935
ssVrecovered
p936
(dp937
Vtype
p938
Vboolean
p939
ssssVstart
p940
(dp941
Vproperties
p942
(dp943
VmatchPart
p944
(dp945
Vtype
p946
Vkeyword
p947
ssVgameId
p948
(dp949
Vtype
p950
Vinteger
p951
ssVstartTime
p952
(dp953
Vtype
p954
Vinteger
p955
ssVtimeTook
p956
(dp957
Vtype
p958
Vlong
p959
ssVstarted
p960
(dp961
Vfields
p962
(dp963
Vkeyword
p964
(dp965
Vignore_above
p966
I256
sVtype
p967
Vkeyword
p968
sssVtype
p969
Vtext
p970
ssVwhen
p971
(dp972
Vfields
p973
(dp974
Vkeyword
p975
(dp976
Vignore_above
p977
I256
sVtype
p978
Vkeyword
p979
sssVtype
p980
Vtext
p981
ssVteamNumber
p982
(dp983
Vtype
p984
Vinteger
p985
ssVendTime
p986
(dp987
Vtype
p988
Vinteger
p989
ssVundefined
p990
(dp991
Vfields
p992
(dp993
Vkeyword
p994
(dp995
Vignore_above
p996
I256
sVtype
p997
Vkeyword
p998
sssVtype
p999
Vtext
p1000
ssssVpickup
p1001
(dp1002
Vproperties
p1003
(dp1004
Vstatus
p1005
(dp1006
Vtype
p1007
Vkeyword
p1008
ssVmatchPart
p1009
(dp1010
Vtype
p1011
Vkeyword
p1012
ssVgameId
p1013
(dp1014
Vtype
p1015
Vinteger
p1016
ssVteamNumber
p1017
(dp1018
Vtype
p1019
Vinteger
p1020
ssVcompetition
p1021
(dp1022
Vtype
p1023
Vkeyword
p1024
ssVfailReason
p1025
(dp1026
Vtype
p1027
Vkeyword
p1028
ssVlocation
p1029
(dp1030
Vtype
p1031
Vkeyword
p1032
ssVstartTime
p1033
(dp1034
Vtype
p1035
Vinteger
p1036
ssVduration
p1037
(dp1038
Vtype
p1039
Vinteger
p1040
ssVendTime
p1041
(dp1042
Vtype
p1043
Vinteger
p1044
ssVtype
p1045
(dp1046
Vtype
p1047
Vkeyword
p1048
ssssVautoCell
p1049
(dp1050
Vproperties
p1051
(dp1052
VmatchPart
p1053
(dp1054
Vtype
p1055
Vkeyword
p1056
ssVendTime
p1057
(dp1058
Vtype
p1059
Vinteger
p1060
ssVShot_from
p1061
(dp1062
Vfields
p1063
(dp1064
Vkeyword
p1065
(dp1066
Vignore_above
p1067
I256
sVtype
p1068
Vkeyword
p1069
sssVtype
p1070
Vtext
p1071
ssVtimeTook
p1072
(dp1073
Vtype
p1074
Vlong
p1075
ssVstartTime
p1076
(dp1077
Vtype
p1078
Vinteger
p1079
ssVundefined
p1080
(dp1081
Vfields
p1082
(dp1083
Vkeyword
p1084
(dp1085
Vignore_above
p1086
I256
sVtype
p1087
Vkeyword
p1088
sssVtype
p1089
Vtext
p1090
ssVHeight
p1091
(dp1092
Vfields
p1093
(dp1094
Vkeyword
p1095
(dp1096
Vignore_above
p1097
I256
sVtype
p1098
Vkeyword
p1099
sssVtype
p1100
Vtext
p1101
ssVgameId
p1102
(dp1103
Vtype
p1104
Vinteger
p1105
ssV2PointSuccess
p1106
(dp1107
Vfields
p1108
(dp1109
Vkeyword
p1110
(dp1111
Vignore_above
p1112
I256
sVtype
p1113
Vkeyword
p1114
sssVtype
p1115
Vtext
p1116
ssVPowerCellShot
p1117
(dp1118
Vfields
p1119
(dp1120
Vkeyword
p1121
(dp1122
Vignore_above
p1123
I256
sVtype
p1124
Vkeyword
p1125
sssVtype
p1126
Vtext
p1127
ssVpickupLocation
p1128
(dp1129
Vfields
p1130
(dp1131
Vkeyword
p1132
(dp1133
Vignore_above
p1134
I256
sVtype
p1135
Vkeyword
p1136
sssVtype
p1137
Vtext
p1138
ssVteamNumber
p1139
(dp1140
Vtype
p1141
Vinteger
p1142
ssVReasonToMiss
p1143
(dp1144
Vfields
p1145
(dp1146
Vkeyword
p1147
(dp1148
Vignore_above
p1149
I256
sVtype
p1150
Vkeyword
p1151
sssVtype
p1152
Vtext
p1153
ssVPowerCellSuccess
p1154
(dp1155
Vfields
p1156
(dp1157
Vkeyword
p1158
(dp1159
Vignore_above
p1160
I256
sVtype
p1161
Vkeyword
p1162
sssVtype
p1163
Vtext
p1164
ssV3PointSuccess
p1165
(dp1166
Vfields
p1167
(dp1168
Vkeyword
p1169
(dp1170
Vignore_above
p1171
I256
sVtype
p1172
Vkeyword
p1173
sssVtype
p1174
Vtext
p1175
ssVpickupStatus
p1176
(dp1177
Vfields
p1178
(dp1179
Vkeyword
p1180
(dp1181
Vignore_above
p1182
I256
sVtype
p1183
Vkeyword
p1184
sssVtype
p1185
Vtext
p1186
ssV1PointSuccess
p1187
(dp1188
Vfields
p1189
(dp1190
Vkeyword
p1191
(dp1192
Vignore_above
p1193
I256
sVtype
p1194
Vkeyword
p1195
sssVtype
p1196
Vtext
p1197
ssssVhatch
p1198
(dp1199
Vproperties
p1200
(dp1201
VmatchPart
p1202
(dp1203
Vtype
p1204
Vkeyword
p1205
ssVgameId
p1206
(dp1207
Vtype
p1208
Vinteger
p1209
ssVstartTime
p1210
(dp1211
Vtype
p1212
Vinteger
p1213
ssVtimeTook
p1214
(dp1215
Vtype
p1216
Vlong
p1217
ssVtimeTookPlace
p1218
(dp1219
Vtype
p1220
Vlong
p1221
ssVplaceStatus
p1222
(dp1223
Vfields
p1224
(dp1225
Vkeyword
p1226
(dp1227
Vignore_above
p1228
I256
sVtype
p1229
Vkeyword
p1230
sssVtype
p1231
Vtext
p1232
ssVplaceLocation
p1233
(dp1234
Vfields
p1235
(dp1236
Vkeyword
p1237
(dp1238
Vignore_above
p1239
I256
sVtype
p1240
Vkeyword
p1241
sssVtype
p1242
Vtext
p1243
ssVtimeTookPickup
p1244
(dp1245
Vtype
p1246
Vlong
p1247
ssVplaceStartTime
p1248
(dp1249
Vtype
p1250
Vlong
p1251
ssVpickupLocation
p1252
(dp1253
Vfields
p1254
(dp1255
Vkeyword
p1256
(dp1257
Vignore_above
p1258
I256
sVtype
p1259
Vkeyword
p1260
sssVtype
p1261
Vtext
p1262
ssVendTime
p1263
(dp1264
Vtype
p1265
Vinteger
p1266
ssVteamNumber
p1267
(dp1268
Vtype
p1269
Vinteger
p1270
ssVpickupStatus
p1271
(dp1272
Vfields
p1273
(dp1274
Vkeyword
p1275
(dp1276
Vignore_above
p1277
I256
sVtype
p1278
Vkeyword
p1279
sssVtype
p1280
Vtext
p1281
ssVundefined
p1282
(dp1283
Vfields
p1284
(dp1285
Vkeyword
p1286
(dp1287
Vignore_above
p1288
I256
sVtype
p1289
Vkeyword
p1290
sssVtype
p1291
Vtext
p1292
ssssVclimb
p1293
(dp1294
Vproperties
p1295
(dp1296
Vstatus
p1297
(dp1298
Vtype
p1299
Vkeyword
p1300
ssVmatchPart
p1301
(dp1302
Vtype
p1303
Vkeyword
p1304
ssVLifted
p1305
(dp1306
Vfields
p1307
(dp1308
Vkeyword
p1309
(dp1310
Vignore_above
p1311
I256
sVtype
p1312
Vkeyword
p1313
sssVtype
p1314
Vtext
p1315
ssVgameId
p1316
(dp1317
Vtype
p1318
Vinteger
p1319
ssVteamNumber
p1320
(dp1321
Vtype
p1322
Vinteger
p1323
ssVtimeTook
p1324
(dp1325
Vtype
p1326
Vlong
p1327
ssVlevel
p1328
(dp1329
Vfields
p1330
(dp1331
Vkeyword
p1332
(dp1333
Vignore_above
p1334
I256
sVtype
p1335
Vkeyword
p1336
sssVtype
p1337
Vtext
p1338
ssVcompetition
p1339
(dp1340
Vtype
p1341
Vkeyword
p1342
ssVeventName
p1343
(dp1344
Vtype
p1345
Vkeyword
p1346
ssVduration
p1347
(dp1348
Vtype
p1349
Vinteger
p1350
ssVfailReason
p1351
(dp1352
Vtype
p1353
Vkeyword
p1354
ssVstartTime
p1355
(dp1356
Vtype
p1357
Vinteger
p1358
ssVBalanced
p1359
(dp1360
Vfields
p1361
(dp1362
Vkeyword
p1363
(dp1364
Vignore_above
p1365
I256
sVtype
p1366
Vkeyword
p1367
sssVtype
p1368
Vtext
p1369
ssVendTime
p1370
(dp1371
Vtype
p1372
Vinteger
p1373
ssVundefined
p1374
(dp1375
Vfields
p1376
(dp1377
Vkeyword
p1378
(dp1379
Vignore_above
p1380
I256
sVtype
p1381
Vkeyword
p1382
sssVtype
p1383
Vtext
p1384
ssssVClimb
p1385
(dp1386
Vproperties
p1387
(dp1388
Vstatus
p1389
(dp1390
Vtype
p1391
Vkeyword
p1392
ssVmatchPart
p1393
(dp1394
Vtype
p1395
Vkeyword
p1396
ssVgameId
p1397
(dp1398
Vtype
p1399
Vinteger
p1400
ssVteamNumber
p1401
(dp1402
Vtype
p1403
Vinteger
p1404
ssVtimeTook
p1405
(dp1406
Vtype
p1407
Vlong
p1408
ssVWhen
p1409
(dp1410
Vfields
p1411
(dp1412
Vkeyword
p1413
(dp1414
Vignore_above
p1415
I256
sVtype
p1416
Vkeyword
p1417
sssVtype
p1418
Vtext
p1419
ssVstartTime
p1420
(dp1421
Vtype
p1422
Vinteger
p1423
ssVclimbStart
p1424
(dp1425
Vtype
p1426
Vlong
p1427
ssVBalanced
p1428
(dp1429
Vfields
p1430
(dp1431
Vkeyword
p1432
(dp1433
Vignore_above
p1434
I256
sVtype
p1435
Vkeyword
p1436
sssVtype
p1437
Vtext
p1438
ssVendTime
p1439
(dp1440
Vtype
p1441
Vinteger
p1442
ssVclimbTime
p1443
(dp1444
Vtype
p1445
Vlong
p1446
ssVundefined
p1447
(dp1448
Vfields
p1449
(dp1450
Vkeyword
p1451
(dp1452
Vignore_above
p1453
I256
sVtype
p1454
Vkeyword
p1455
sssVtype
p1456
Vtext
p1457
ssssVshooting
p1458
(dp1459
Vproperties
p1460
(dp1461
Vstatus
p1462
(dp1463
Vtype
p1464
Vkeyword
p1465
ssVmatchPart
p1466
(dp1467
Vtype
p1468
Vkeyword
p1469
ssVgameId
p1470
(dp1471
Vtype
p1472
Vinteger
p1473
ssVteamNumber
p1474
(dp1475
Vtype
p1476
Vinteger
p1477
ssVcompetition
p1478
(dp1479
Vtype
p1480
Vkeyword
p1481
ssVfailReason
p1482
(dp1483
Vtype
p1484
Vkeyword
p1485
ssVlocation
p1486
(dp1487
Vtype
p1488
Vkeyword
p1489
ssVstartTime
p1490
(dp1491
Vtype
p1492
Vinteger
p1493
ssVduration
p1494
(dp1495
Vtype
p1496
Vinteger
p1497
ssVendTime
p1498
(dp1499
Vtype
p1500
Vinteger
p1501
ssssVstuck
p1502
(dp1503
Vproperties
p1504
(dp1505
VmatchPart
p1506
(dp1507
Vtype
p1508
Vkeyword
p1509
ssVgameId
p1510
(dp1511
Vtype
p1512
Vinteger
p1513
ssVstartTime
p1514
(dp1515
Vtype
p1516
Vinteger
p1517
ssVtimeTook
p1518
(dp1519
Vtype
p1520
Vlong
p1521
ssVReason
p1522
(dp1523
Vfields
p1524
(dp1525
Vkeyword
p1526
(dp1527
Vignore_above
p1528
I256
sVtype
p1529
Vkeyword
p1530
sssVtype
p1531
Vtext
p1532
ssVteamNumber
p1533
(dp1534
Vtype
p1535
Vinteger
p1536
ssVendTime
p1537
(dp1538
Vtype
p1539
Vinteger
p1540
ssVundefined
p1541
(dp1542
Vfields
p1543
(dp1544
Vkeyword
p1545
(dp1546
Vignore_above
p1547
I256
sVtype
p1548
Vkeyword
p1549
sssVtype
p1550
Vtext
p1551
ssssVcycle
p1552
(dp1553
Vproperties
p1554
(dp1555
VmatchPart
p1556
(dp1557
Vtype
p1558
Vkeyword
p1559
ssVgameId
p1560
(dp1561
Vtype
p1562
Vinteger
p1563
ssVstartTime
p1564
(dp1565
Vtype
p1566
Vinteger
p1567
ssVtimeTook
p1568
(dp1569
Vtype
p1570
Vlong
p1571
ssVtimeTookPlace
p1572
(dp1573
Vtype
p1574
Vlong
p1575
ssVplaceStatus
p1576
(dp1577
Vfields
p1578
(dp1579
Vkeyword
p1580
(dp1581
Vignore_above
p1582
I256
sVtype
p1583
Vkeyword
p1584
sssVtype
p1585
Vtext
p1586
ssVgamePiece
p1587
(dp1588
Vfields
p1589
(dp1590
Vkeyword
p1591
(dp1592
Vignore_above
p1593
I256
sVtype
p1594
Vkeyword
p1595
sssVtype
p1596
Vtext
p1597
ssVplaceLocation
p1598
(dp1599
Vfields
p1600
(dp1601
Vkeyword
p1602
(dp1603
Vignore_above
p1604
I256
sVtype
p1605
Vkeyword
p1606
sssVtype
p1607
Vtext
p1608
ssVtimeTookPickup
p1609
(dp1610
Vtype
p1611
Vlong
p1612
ssVplaceStartTime
p1613
(dp1614
Vtype
p1615
Vlong
p1616
ssVpickupLocation
p1617
(dp1618
Vfields
p1619
(dp1620
Vkeyword
p1621
(dp1622
Vignore_above
p1623
I256
sVtype
p1624
Vkeyword
p1625
sssVtype
p1626
Vtext
p1627
ssVendTime
p1628
(dp1629
Vtype
p1630
Vinteger
p1631
ssVteamNumber
p1632
(dp1633
Vtype
p1634
Vinteger
p1635
ssVpickupStatus
p1636
(dp1637
Vfields
p1638
(dp1639
Vkeyword
p1640
(dp1641
Vignore_above
p1642
I256
sVtype
p1643
Vkeyword
p1644
sssVtype
p1645
Vtext
p1646
ssVundefined
p1647
(dp1648
Vfields
p1649
(dp1650
Vkeyword
p1651
(dp1652
Vignore_above
p1653
I256
sVtype
p1654
Vkeyword
p1655
sssVtype
p1656
Vtext
p1657
sssssssS'events'
p1658
(lp1659
(dp1660
V_type
p1661
Vclimb
p1662
sV_id
p1663
VAW96koFVunpQiKx5K87K
p1664
sV_source
p1665
(dp1666
Vstatus
p1667
VSuccess
p1668
sVmatchPart
p1669
Vteleop
p1670
sVLifted
p1671
g254
sVgameId
p1672
I2
sVteamNumber
p1673
I222
sVtimeTook
p1674
I0
sVlevel
p1675
VOther Bot
p1676
sVstartTime
p1677
I51
sVBalanced
p1678
VBalanced
p1679
sVendTime
p1680
I51
sVundefined
p1681
g241
ssV_index
p1682
Vevents
p1683
sa(dp1684
V_type
p1685
Vclimb
p1686
sV_id
p1687
VAW96kqOrunpQiKx5K87L
p1688
sV_source
p1689
(dp1690
Vstatus
p1691
VSuccess
p1692
sVmatchPart
p1693
Vteleop
p1694
sVLifted
p1695
V0
p1696
sVgameId
p1697
I2
sVteamNumber
p1698
I222
sVtimeTook
p1699
I0
sVlevel
p1700
VOther Bot
p1701
sVstartTime
p1702
I51
sVBalanced
p1703
VBalanced
p1704
sVendTime
p1705
I51
sVundefined
p1706
g241
ssV_index
p1707
Vevents
p1708
sa(dp1709
V_type
p1710
Vcomment
p1711
sV_id
p1712
VAW_Tv3asRaufHoml_unh
p1713
sV_source
p1714
(dp1715
VgameId
p1716
I2
sVteamNumber
p1717
I222
sVtimeTook
p1718
I0
sVcompetition
p1719
Vhouston
p1720
sVcontent
p1721
g241
sVstartTime
p1722
I216
sVendTime
p1723
I216
ssV_index
p1724
Vevents
p1725
sa(dp1726
V_type
p1727
VClimb
p1728
sV_id
p1729
VAW_i31N_oHnDxX0quTvM
p1730
sV_source
p1731
(dp1732
Vstatus
p1733
VSuccess
p1734
sVmatchPart
p1735
Vteleop
p1736
sVgameId
p1737
I2
sVteamNumber
p1738
I4590
sVtimeTook
p1739
I0
sVWhen
p1740
V2nd
p1741
sVstartTime
p1742
I34
sVclimbStart
p1743
I34
sVBalanced
p1744
VBalanced
p1745
sVendTime
p1746
I34
sVclimbTime
p1747
I0
sVundefined
p1748
g241
ssV_index
p1749
Vevents
p1750
sa(dp1751
V_type
p1752
VPowerCells
p1753
sV_id
p1754
VAW_i32zToHnDxX0quTvN
p1755
sV_source
p1756
(dp1757
VmatchPart
p1758
Vteleop
p1759
sVgameId
p1760
I2
sVstartTime
p1761
I48
sVtimeTook
p1762
I0
sVundefined
p1763
g241
sVHeight
p1764
VLow
p1765
sVPowerCellShot
p1766
V3
p1767
sVendTime
p1768
I48
sVteamNumber
p1769
I4590
sV1PointSuccess
p1770
g229
ssV_index
p1771
Vevents
p1772
sa(dp1773
V_type
p1774
VClimb
p1775
sV_id
p1776
VAW_Tv5H6RaufHoml_uni
p1777
sV_source
p1778
(dp1779
Vstatus
p1780
VSuccess
p1781
sVmatchPart
p1782
Vteleop
p1783
sVgameId
p1784
I2
sVteamNumber
p1785
I222
sVtimeTook
p1786
I0
sVWhen
p1787
V2nd
p1788
sVstartTime
p1789
I207
sVclimbStart
p1790
I207
sVBalanced
p1791
VBalanced
p1792
sVendTime
p1793
I207
sVclimbTime
p1794
I0
sVundefined
p1795
g241
ssV_index
p1796
Vevents
p1797
sa(dp1798
V_type
p1799
VPowerCells
p1800
sV_id
p1801
VAW_i34nCoHnDxX0quTvO
p1802
sV_source
p1803
(dp1804
VmatchPart
p1805
Vteleop
p1806
sVgameId
p1807
I2
sVstartTime
p1808
I48
sVtimeTook
p1809
I0
sVHeight
p1810
VHigh
p1811
sV2PointSuccess
p1812
g254
sVPowerCellShot
p1813
g229
sV3PointSuccess
p1814
g254
sVendTime
p1815
I48
sVteamNumber
p1816
I4590
sVundefined
p1817
g241
ssV_index
p1818
Vevents
p1819
sa(dp1820
V_type
p1821
VFinish
p1822
sV_id
p1823
VAW_i3-bcoHnDxX0quTvP
p1824
sV_source
p1825
(dp1826
VmatchPart
p1827
Vteleop
p1828
sVshutdown
p1829
Vshutdown
p1830
sVgameId
p1831
I2
sVmainShootLocation
p1832
VTrench
p1833
sVteamNumber
p1834
I4590
sVtimeTook
p1835
I0
sVpickUpPlaces
p1836
VFeeder
p1837
sVlifted
p1838
Vlift 2
p1839
sVdefense
p1840
Vwas attacked
p1841
sVstartTime
p1842
I66
sVendTime
p1843
I66
sVplaceCount
p1844
VAll
p1845
sVundefined
p1846
g241
ssV_index
p1847
Vevents
p1848
sa(dp1849
V_type
p1850
Vcomment
p1851
sV_id
p1852
VAW_Tv7KHRaufHoml_unj
p1853
sV_source
p1854
(dp1855
VgameId
p1856
I2
sVteamNumber
p1857
I222
sVtimeTook
p1858
I0
sVcompetition
p1859
Vhouston
p1860
sVcontent
p1861
Vhello\u000a
p1862
sVstartTime
p1863
I207
sVendTime
p1864
I207
ssV_index
p1865
Vevents
p1866
sa(dp1867
V_type
p1868
VautoCell
p1869
sV_id
p1870
VAW_i3y5CoHnDxX0quTvL
p1871
sV_source
p1872
(dp1873
VmatchPart
p1874
Vautonomous
p1875
sVgameId
p1876
I2
sVteamNumber
p1877
I4590
sVtimeTook
p1878
I0
sVPowerCellShot
p1879
V4
p1880
sVundefined
p1881
g241
sVHeight
p1882
VLow
p1883
sVstartTime
p1884
I14
sVpickupLocation
p1885
VStarting balls
p1886
sVendTime
p1887
I14
sV1PointSuccess
p1888
g229
ssV_index
p1889
Vevents
p1890
sa(dp1891
V_type
p1892
VFinish
p1893
sV_id
p1894
VAW_TwBRWRaufHoml_unk
p1895
sV_source
p1896
(dp1897
VmatchPart
p1898
Vteleop
p1899
sVshutdown
p1900
Vshutdown
p1901
sVgameId
p1902
I2
sVmainShootLocation
p1903
VTrench
p1904
sVteamNumber
p1905
I222
sVtimeTook
p1906
I0
sVpickUpPlaces
p1907
VBoth
p1908
sVlifted
p1909
Vlift 2
p1910
sVdefense
p1911
Vattacked
p1912
sVstartTime
p1913
I207
sVendTime
p1914
I207
sVplaceCount
p1915
VAll
p1916
sVundefined
p1917
g241
ssV_index
p1918
Vevents
p1919
sa(dp1920
V_type
p1921
Vcomment
p1922
sV_id
p1923
VAW_TwDZfRaufHoml_unl
p1924
sV_source
p1925
(dp1926
VgameId
p1927
I2
sVteamNumber
p1928
I222
sVtimeTook
p1929
I0
sVcompetition
p1930
Vhouston
p1931
sVcontent
p1932
g241
sVstartTime
p1933
I224
sVendTime
p1934
I224
ssV_index
p1935
Vevents
p1936
sas.