(dp0
S'team-game-data'
p1
(lp2
sS'games_mapping'
p3
(dp4
Vgames
p5
(dp6
Vmappings
p7
(dp8
V_default_
p9
(dp10
Vproperties
p11
(dp12
VredTeamScore
p13
(dp14
Vtype
p15
Vinteger
p16
ssVblueTeamScore
p17
(dp18
Vtype
p19
Vinteger
p20
ssVgameId
p21
(dp22
Vtype
p23
Vinteger
p24
ssVblueTeams
p25
(dp26
Vtype
p27
Vinteger
p28
ssVcompetition
p29
(dp30
Vtype
p31
Vkeyword
p32
ssVcomments
p33
(dp34
Vtype
p35
Vtext
p36
ssVwinningAlliance
p37
(dp38
Vtype
p39
Vkeyword
p40
ssVredTeams
p41
(dp42
Vtype
p43
Vinteger
p44
ssssVPractice
p45
(dp46
Vproperties
p47
(dp48
VredTeamScore
p49
(dp50
Vtype
p51
Vinteger
p52
ssVblueTeamScore
p53
(dp54
Vtype
p55
Vinteger
p56
ssVgameId
p57
(dp58
Vtype
p59
Vinteger
p60
ssVblueTeams
p61
(dp62
Vtype
p63
Vinteger
p64
ssVcompetition
p65
(dp66
Vfields
p67
(dp68
Vkeyword
p69
(dp70
Vignore_above
p71
I256
sVtype
p72
Vkeyword
p73
sssVtype
p74
Vtext
p75
ssVcomments
p76
(dp77
Vtype
p78
Vtext
p79
ssVdate
p80
(dp81
Vtype
p82
Vlong
p83
ssVwinningAlliance
p84
(dp85
Vtype
p86
Vkeyword
p87
ssVredTeams
p88
(dp89
Vtype
p90
Vinteger
p91
ssssVPlayoffs
p92
(dp93
Vproperties
p94
(dp95
VredTeamScore
p96
(dp97
Vtype
p98
Vinteger
p99
ssVblueTeamScore
p100
(dp101
Vtype
p102
Vinteger
p103
ssVgameId
p104
(dp105
Vtype
p106
Vinteger
p107
ssVblueTeams
p108
(dp109
Vtype
p110
Vinteger
p111
ssVcompetition
p112
(dp113
Vfields
p114
(dp115
Vkeyword
p116
(dp117
Vignore_above
p118
I256
sVtype
p119
Vkeyword
p120
sssVtype
p121
Vtext
p122
ssVcomments
p123
(dp124
Vtype
p125
Vtext
p126
ssVdate
p127
(dp128
Vtype
p129
Vlong
p130
ssVwinningAlliance
p131
(dp132
Vtype
p133
Vkeyword
p134
ssVredTeams
p135
(dp136
Vtype
p137
Vinteger
p138
ssssVQualification
p139
(dp140
Vproperties
p141
(dp142
VredTeamScore
p143
(dp144
Vtype
p145
Vinteger
p146
ssVblueTeamScore
p147
(dp148
Vtype
p149
Vinteger
p150
ssVgameId
p151
(dp152
Vtype
p153
Vinteger
p154
ssVblueTeams
p155
(dp156
Vtype
p157
Vinteger
p158
ssVcompetition
p159
(dp160
Vfields
p161
(dp162
Vkeyword
p163
(dp164
Vignore_above
p165
I256
sVtype
p166
Vkeyword
p167
sssVtype
p168
Vtext
p169
ssVcomments
p170
(dp171
Vtype
p172
Vtext
p173
ssVdate
p174
(dp175
Vtype
p176
Vlong
p177
ssVwinningAlliance
p178
(dp179
Vtype
p180
Vkeyword
p181
ssVredTeams
p182
(dp183
Vtype
p184
Vinteger
p185
sssssssS'team_game_data_mapping'
p186
(dp187
Vteam-game-data
p188
(dp189
Vmappings
p190
(dp191
V_default_
p192
(dp193
Vproperties
p194
(dp195
VunwantedGames
p196
(dp197
Vtype
p198
Vinteger
p199
ssVimportantGames
p200
(dp201
Vtype
p202
Vinteger
p203
ssVreviewedGames
p204
(dp205
Vtype
p206
Vinteger
p207
ssssVteam
p208
(dp209
Vproperties
p210
(dp211
VunwantedGames
p212
(dp213
Vtype
p214
Vinteger
p215
ssVimportantGames
p216
(dp217
Vtype
p218
Vinteger
p219
ssVreviewedGames
p220
(dp221
Vtype
p222
Vinteger
p223
sssssssS'games'
p224
(lp225
sS'.kibana'
p226
(lp227
sS'events_mapping'
p228
(dp229
Vevents
p230
(dp231
Vmappings
p232
(dp233
Vcomment
p234
(dp235
Vproperties
p236
(dp237
Vcontent
p238
(dp239
Vtype
p240
Vtext
p241
ssVeventName
p242
(dp243
Vtype
p244
Vkeyword
p245
ssVgameId
p246
(dp247
Vtype
p248
Vinteger
p249
ssVteamNumber
p250
(dp251
Vtype
p252
Vinteger
p253
ssVcompetition
p254
(dp255
Vtype
p256
Vkeyword
p257
ssssVchassisFight
p258
(dp259
Vproperties
p260
(dp261
Vstatus
p262
(dp263
Vtype
p264
Vkeyword
p265
ssVmatchPart
p266
(dp267
Vtype
p268
Vkeyword
p269
ssVtimeTook
p270
(dp271
Vtype
p272
Vlong
p273
ssVgameId
p274
(dp275
Vtype
p276
Vinteger
p277
ssVteamNumber
p278
(dp279
Vtype
p280
Vinteger
p281
ssVinitiated
p282
(dp283
Vtype
p284
Vboolean
p285
ssVcompetition
p286
(dp287
Vtype
p288
Vkeyword
p289
ssVstartTime
p290
(dp291
Vtype
p292
Vinteger
p293
ssVendTime
p294
(dp295
Vtype
p296
Vinteger
p297
ssssVgearPlace
p298
(dp299
Vproperties
p300
(dp301
Vstatus
p302
(dp303
Vtype
p304
Vkeyword
p305
ssVmatchPart
p306
(dp307
Vtype
p308
Vkeyword
p309
ssVgameId
p310
(dp311
Vtype
p312
Vinteger
p313
ssVteamNumber
p314
(dp315
Vtype
p316
Vinteger
p317
ssVcompetition
p318
(dp319
Vtype
p320
Vkeyword
p321
ssVfailReason
p322
(dp323
Vtype
p324
Vkeyword
p325
ssVlocation
p326
(dp327
Vtype
p328
Vkeyword
p329
ssVstartTime
p330
(dp331
Vtype
p332
Vinteger
p333
ssVduration
p334
(dp335
Vtype
p336
Vinteger
p337
ssVendTime
p338
(dp339
Vtype
p340
Vinteger
p341
ssssVgearplace
p342
(dp343
Vproperties
p344
(dp345
Vstatus
p346
(dp347
Vtype
p348
Vkeyword
p349
ssVmatchPart
p350
(dp351
Vtype
p352
Vkeyword
p353
ssVgameId
p354
(dp355
Vtype
p356
Vinteger
p357
ssVteamNumber
p358
(dp359
Vtype
p360
Vinteger
p361
ssVtimeTook
p362
(dp363
Vtype
p364
Vlong
p365
ssVcompetition
p366
(dp367
Vtype
p368
Vkeyword
p369
ssVfailReason
p370
(dp371
Vtype
p372
Vkeyword
p373
ssVlocation
p374
(dp375
Vtype
p376
Vkeyword
p377
ssVstartTime
p378
(dp379
Vtype
p380
Vinteger
p381
ssVendTime
p382
(dp383
Vtype
p384
Vinteger
p385
ssssVfight
p386
(dp387
Vproperties
p388
(dp389
ValliedTeam
p390
(dp391
Vtype
p392
Vinteger
p393
ssVmatchPart
p394
(dp395
Vtype
p396
Vkeyword
p397
ssVgameId
p398
(dp399
Vtype
p400
Vinteger
p401
ssVstartTime
p402
(dp403
Vtype
p404
Vinteger
p405
ssVinitiated
p406
(dp407
Vtype
p408
Vboolean
p409
ssVcompetition
p410
(dp411
Vtype
p412
Vkeyword
p413
ssVeventName
p414
(dp415
Vtype
p416
Vkeyword
p417
ssVfailReason
p418
(dp419
Vtype
p420
Vkeyword
p421
ssVstatus
p422
(dp423
Vtype
p424
Vkeyword
p425
ssVfightReason
p426
(dp427
Vtype
p428
Vkeyword
p429
ssVenemyTeam
p430
(dp431
Vtype
p432
Vinteger
p433
ssVduration
p434
(dp435
Vtype
p436
Vinteger
p437
ssVendTime
p438
(dp439
Vtype
p440
Vinteger
p441
ssVteamNumber
p442
(dp443
Vtype
p444
Vinteger
p445
ssssVdisabled
p446
(dp447
Vproperties
p448
(dp449
VmatchPart
p450
(dp451
Vtype
p452
Vkeyword
p453
ssVgameId
p454
(dp455
Vtype
p456
Vinteger
p457
ssVteamNumber
p458
(dp459
Vtype
p460
Vinteger
p461
ssVcompetition
p462
(dp463
Vtype
p464
Vkeyword
p465
ssVeventName
p466
(dp467
Vtype
p468
Vkeyword
p469
ssVreason
p470
(dp471
Vtype
p472
Vkeyword
p473
ssVstartTime
p474
(dp475
Vtype
p476
Vinteger
p477
ssVduration
p478
(dp479
Vtype
p480
Vinteger
p481
ssVendTime
p482
(dp483
Vtype
p484
Vinteger
p485
ssVrecovered
p486
(dp487
Vtype
p488
Vboolean
p489
ssssVstuck
p490
(dp491
Vproperties
p492
(dp493
VmatchPart
p494
(dp495
Vtype
p496
Vkeyword
p497
ssVgameId
p498
(dp499
Vtype
p500
Vinteger
p501
ssVteamNumber
p502
(dp503
Vtype
p504
Vinteger
p505
ssVtimeTook
p506
(dp507
Vtype
p508
Vlong
p509
ssVcompetition
p510
(dp511
Vtype
p512
Vkeyword
p513
ssVcontent
p514
(dp515
Vfields
p516
(dp517
Vkeyword
p518
(dp519
Vignore_above
p520
I256
sVtype
p521
Vkeyword
p522
sssVtype
p523
Vtext
p524
ssVreason
p525
(dp526
Vtype
p527
Vkeyword
p528
ssVstartTime
p529
(dp530
Vtype
p531
Vinteger
p532
ssVendTime
p533
(dp534
Vtype
p535
Vinteger
p536
ssVrecovered
p537
(dp538
Vtype
p539
Vboolean
p540
ssssVpickup
p541
(dp542
Vproperties
p543
(dp544
Vstatus
p545
(dp546
Vtype
p547
Vkeyword
p548
ssVmatchPart
p549
(dp550
Vtype
p551
Vkeyword
p552
ssVgameId
p553
(dp554
Vtype
p555
Vinteger
p556
ssVteamNumber
p557
(dp558
Vtype
p559
Vinteger
p560
ssVtimeTook
p561
(dp562
Vtype
p563
Vlong
p564
ssVcompetition
p565
(dp566
Vtype
p567
Vkeyword
p568
ssVfailReason
p569
(dp570
Vtype
p571
Vkeyword
p572
ssVlocation
p573
(dp574
Vtype
p575
Vkeyword
p576
ssVstartTime
p577
(dp578
Vtype
p579
Vinteger
p580
ssVduration
p581
(dp582
Vtype
p583
Vinteger
p584
ssVendTime
p585
(dp586
Vtype
p587
Vinteger
p588
ssVtype
p589
(dp590
Vtype
p591
Vkeyword
p592
ssssVclimb
p593
(dp594
Vproperties
p595
(dp596
Vstatus
p597
(dp598
Vtype
p599
Vkeyword
p600
ssVmatchPart
p601
(dp602
Vtype
p603
Vkeyword
p604
ssVgameId
p605
(dp606
Vtype
p607
Vinteger
p608
ssVteamNumber
p609
(dp610
Vtype
p611
Vinteger
p612
ssVtimeTook
p613
(dp614
Vtype
p615
Vlong
p616
ssVcompetition
p617
(dp618
Vtype
p619
Vkeyword
p620
ssVeventName
p621
(dp622
Vtype
p623
Vkeyword
p624
ssVfailReason
p625
(dp626
Vtype
p627
Vkeyword
p628
ssVstartTime
p629
(dp630
Vtype
p631
Vinteger
p632
ssVduration
p633
(dp634
Vtype
p635
Vinteger
p636
ssVendTime
p637
(dp638
Vtype
p639
Vinteger
p640
ssssVshooting
p641
(dp642
Vproperties
p643
(dp644
Vstatus
p645
(dp646
Vtype
p647
Vkeyword
p648
ssVmatchPart
p649
(dp650
Vtype
p651
Vkeyword
p652
ssVgameId
p653
(dp654
Vtype
p655
Vinteger
p656
ssVteamNumber
p657
(dp658
Vtype
p659
Vinteger
p660
ssVtimeTook
p661
(dp662
Vtype
p663
Vlong
p664
ssVcompetition
p665
(dp666
Vtype
p667
Vkeyword
p668
ssVfailReason
p669
(dp670
Vtype
p671
Vkeyword
p672
ssVlocation
p673
(dp674
Vtype
p675
Vkeyword
p676
ssVstartTime
p677
(dp678
Vtype
p679
Vinteger
p680
ssVduration
p681
(dp682
Vtype
p683
Vinteger
p684
ssVendTime
p685
(dp686
Vtype
p687
Vinteger
p688
sssssssS'events'
p689
(lp690
(dp691
V_type
p692
Vgearplace
p693
sV_id
p694
VAVuRdsaHirJ1pZWxmJi7
p695
sV_source
p696
(dp697
Vstatus
p698
VSuccess
p699
sVmatchPart
p700
Vteleop
p701
sVgameId
p702
I193
sVteamNumber
p703
I2403
sVtimeTook
p704
I7
sVcompetition
p705
Vhouston
p706
sVlocation
p707
VRight
p708
sVstartTime
p709
I126
sVendTime
p710
I133
ssV_index
p711
Vevents
p712
sa(dp713
V_type
p714
Vgearplace
p715
sV_id
p716
VAVuRdRwWirJ1pZWxmJit
p717
sV_source
p718
(dp719
Vstatus
p720
VSuccess
p721
sVmatchPart
p722
Vteleop
p723
sVgameId
p724
I195
sVteamNumber
p725
I2928
sVtimeTook
p726
I3
sVcompetition
p727
Vhouston
p728
sVlocation
p729
VRight
p730
sVstartTime
p731
I19
sVendTime
p732
I22
ssV_index
p733
Vevents
p734
sa(dp735
V_type
p736
Vstuck
p737
sV_id
p738
VAVuRdoqfirJ1pZWxmJi5
p739
sV_source
p740
(dp741
VmatchPart
p742
Vteleop
p743
sVgameId
p744
I195
sVteamNumber
p745
I4219
sVtimeTook
p746
I88
sVcompetition
p747
Vhouston
p748
sVreason
p749
Vhit
p750
sVstartTime
p751
I62
sVendTime
p752
I150
sVrecovered
p753
I00
ssV_index
p754
Vevents
p755
sa(dp756
V_type
p757
Vclimb
p758
sV_id
p759
VAVuRdvfpirJ1pZWxmJi9
p760
sV_source
p761
(dp762
Vstatus
p763
VSuccess
p764
sVmatchPart
p765
Vteleop
p766
sVgameId
p767
I193
sVteamNumber
p768
I2403
sVtimeTook
p769
I7
sVcompetition
p770
Vhouston
p771
sVstartTime
p772
I135
sVendTime
p773
I142
ssV_index
p774
Vevents
p775
sa(dp776
V_type
p777
Vcomment
p778
sV_id
p779
VAVuRe6IlirJ1pZWxmJjP
p780
sV_source
p781
(dp782
Vcontent
p783
V24 \u05de\u05ea\u05d5\u05da 54 \u05e7\u05dc\u05d9\u05e2\u05d4 \u05d8\u05dc\u05d0\u05d5\u05e4\u05d9\u05ea \u05de\u05d4\u05e7\u05d5 \u05e9\u05dc \u05d1\u05d5\u05d9\u05dc\u05e8
p784
sVtimeTook
p785
NsVgameId
p786
I192
sVcompetition
p787
Vhouston
p788
sVteamNumber
p789
I973
ssV_index
p790
Vevents
p791
sa(dp792
V_type
p793
Vpickup
p794
sV_id
p795
VAVuRf25WirJ1pZWxmJjq
p796
sV_source
p797
(dp798
Vstatus
p799
VSuccess
p800
sVmatchPart
p801
Vteleop
p802
sVgameId
p803
I191
sVteamNumber
p804
I4276
sVtimeTook
p805
I5
sVcompetition
p806
Vhouston
p807
sVlocation
p808
VFloor
p809
sVstartTime
p810
I123
sVendTime
p811
I128
sVtype
p812
VGear
p813
ssV_index
p814
Vevents
p815
sa(dp816
V_type
p817
Vpickup
p818
sV_id
p819
VAVuRfXh1irJ1pZWxmJjd
p820
sV_source
p821
(dp822
Vstatus
p823
VSuccess
p824
sVmatchPart
p825
Vteleop
p826
sVgameId
p827
I191
sVteamNumber
p828
I4276
sVtimeTook
p829
I2
sVcompetition
p830
Vhouston
p831
sVlocation
p832
VFloor
p833
sVstartTime
p834
I66
sVendTime
p835
I68
sVtype
p836
VGear
p837
ssV_index
p838
Vevents
p839
sa(dp840
V_type
p841
Vpickup
p842
sV_id
p843
VAVuRfPplirJ1pZWxmJjY
p844
sV_source
p845
(dp846
Vstatus
p847
VSuccess
p848
sVmatchPart
p849
Vteleop
p850
sVgameId
p851
I192
sVteamNumber
p852
I973
sVtimeTook
p853
I6
sVcompetition
p854
Vhouston
p855
sVlocation
p856
VFloor
p857
sVstartTime
p858
I93
sVendTime
p859
I99
sVtype
p860
VBall
p861
ssV_index
p862
Vevents
p863
sa(dp864
V_type
p865
VchassisFight
p866
sV_id
p867
VAVuRgSBfirJ1pZWxmJjz
p868
sV_source
p869
(dp870
Vstatus
p871
VFailure
p872
sVmatchPart
p873
Vteleop
p874
sVtimeTook
p875
I11
sVgameId
p876
I194
sVteamNumber
p877
I5026
sVinitiated
p878
I00
sVcompetition
p879
Vhouston
p880
sVfailReason
p881
NsVfightReason
p882
NsVstartTime
p883
I171
sVendTime
p884
I182
ssV_index
p885
Vevents
p886
sa(dp887
V_type
p888
Vgearplace
p889
sV_id
p890
VAVuRfC5dirJ1pZWxmJjR
p891
sV_source
p892
(dp893
Vstatus
p894
VSuccess
p895
sVmatchPart
p896
Vteleop
p897
sVgameId
p898
I193
sVteamNumber
p899
I2642
sVtimeTook
p900
I3
sVcompetition
p901
Vhouston
p902
sVlocation
p903
VLeft
p904
sVstartTime
p905
I62
sVendTime
p906
I65
ssV_index
p907
Vevents
p908
sa(dp909
V_type
p910
Vgearplace
p911
sV_id
p912
VAVuRfLapirJ1pZWxmJjW
p913
sV_source
p914
(dp915
Vstatus
p916
VSuccess
p917
sVmatchPart
p918
Vteleop
p919
sVgameId
p920
I193
sVteamNumber
p921
I2642
sVtimeTook
p922
I2
sVcompetition
p923
Vhouston
p924
sVlocation
p925
VLeft
p926
sVstartTime
p927
I96
sVendTime
p928
I98
ssV_index
p929
Vevents
p930
sa(dp931
V_type
p932
Vgearplace
p933
sV_id
p934
VAVuRf2cGirJ1pZWxmJjp
p935
sV_source
p936
(dp937
Vstatus
p938
VSuccess
p939
sVmatchPart
p940
Vteleop
p941
sVgameId
p942
I192
sVteamNumber
p943
I2183
sVtimeTook
p944
I3
sVcompetition
p945
Vhouston
p946
sVlocation
p947
VLeft
p948
sVstartTime
p949
I40
sVendTime
p950
I43
ssV_index
p951
Vevents
p952
sa(dp953
V_type
p954
Vclimb
p955
sV_id
p956
VAVuRgFiQirJ1pZWxmJjx
p957
sV_source
p958
(dp959
Vstatus
p960
VSuccess
p961
sVmatchPart
p962
Vteleop
p963
sVgameId
p964
I192
sVteamNumber
p965
I973
sVtimeTook
p966
I3
sVcompetition
p967
Vhouston
p968
sVstartTime
p969
I138
sVendTime
p970
I141
ssV_index
p971
Vevents
p972
sa(dp973
V_type
p974
Vcomment
p975
sV_id
p976
VAVuRgDm0irJ1pZWxmJjv
p977
sV_source
p978
(dp979
Vcontent
p980
V\u05e7\u05dc\u05d9\u05e2\u05d4 \u05d8\u05dc\u05d0\u05d5\u05e4\u05d9\u05ea \u05de\u05d4\u05e7\u05d5 \u05d1\u05d5\u05d9\u05dc\u05e8 - 57 \u05db\u05d3\u05d5\u05e8\u05d9\u05dd \u05e0\u05e7\u05dc\u05e2\u05d5 \u05de\u05ea\u05d5\u05da ~60
p981
sVtimeTook
p982
NsVgameId
p983
I192
sVcompetition
p984
Vhouston
p985
sVteamNumber
p986
I973
ssV_index
p987
Vevents
p988
sa(dp989
V_type
p990
Vgearplace
p991
sV_id
p992
VAVuRhJrfirJ1pZWxmJkL
p993
sV_source
p994
(dp995
Vstatus
p996
VFailure
p997
sVmatchPart
p998
Vautonomous
p999
sVgameId
p1000
I193
sVteamNumber
p1001
I2485
sVtimeTook
p1002
I0
sVcompetition
p1003
Vhouston
p1004
sVfailReason
p1005
VFailed because of mechanical failure / gear fell
p1006
sVlocation
p1007
VRight
p1008
sVstartTime
p1009
I3
sVendTime
p1010
I3
ssV_index
p1011
Vevents
p1012
sa(dp1013
V_type
p1014
Vshooting
p1015
sV_id
p1016
VAVuRhEwhirJ1pZWxmJkK
p1017
sV_source
p1018
(dp1019
Vstatus
p1020
VFailure
p1021
sVmatchPart
p1022
Vautonomous
p1023
sVgameId
p1024
I245
sVteamNumber
p1025
I624
sVtimeTook
p1026
I5
sVcompetition
p1027
Vhouston
p1028
sVfailReason
p1029
VFailed because of mechanical failure
p1030
sVlocation
p1031
VHigh
p1032
sVstartTime
p1033
I10
sVendTime
p1034
I15
ssV_index
p1035
Vevents
p1036
sa(dp1037
V_type
p1038
Vpickup
p1039
sV_id
p1040
VAVuRhKh1irJ1pZWxmJkM
p1041
sV_source
p1042
(dp1043
Vstatus
p1044
VSuccess
p1045
sVmatchPart
p1046
Vteleop
p1047
sVgameId
p1048
I196
sVteamNumber
p1049
I1011
sVtimeTook
p1050
I5
sVcompetition
p1051
Vhouston
p1052
sVlocation
p1053
VFeeder
p1054
sVstartTime
p1055
I75
sVendTime
p1056
I80
sVtype
p1057
VGear
p1058
ssV_index
p1059
Vevents
p1060
sa(dp1061
V_type
p1062
Vpickup
p1063
sV_id
p1064
VAVuRhqnpirJ1pZWxmJkh
p1065
sV_source
p1066
(dp1067
Vstatus
p1068
VSuccess
p1069
sVmatchPart
p1070
Vteleop
p1071
sVgameId
p1072
I196
sVteamNumber
p1073
I4276
sVtimeTook
p1074
I4
sVcompetition
p1075
Vhouston
p1076
sVlocation
p1077
VFloor
p1078
sVstartTime
p1079
I295
sVendTime
p1080
I299
sVtype
p1081
VGear
p1082
ssV_index
p1083
Vevents
p1084
sa(dp1085
V_type
p1086
Vgearplace
p1087
sV_id
p1088
VAVuRg32uirJ1pZWxmJkB
p1089
sV_source
p1090
(dp1091
Vstatus
p1092
VSuccess
p1093
sVmatchPart
p1094
Vteleop
p1095
sVgameId
p1096
I196
sVteamNumber
p1097
I1011
sVtimeTook
p1098
I4
sVcompetition
p1099
Vhouston
p1100
sVlocation
p1101
VCenter
p1102
sVstartTime
p1103
I40
sVendTime
p1104
I44
ssV_index
p1105
Vevents
p1106
sa(dp1107
V_type
p1108
Vgearplace
p1109
sV_id
p1110
VAVuRhUBoirJ1pZWxmJkR
p1111
sV_source
p1112
(dp1113
Vstatus
p1114
VSuccess
p1115
sVmatchPart
p1116
Vteleop
p1117
sVgameId
p1118
I196
sVteamNumber
p1119
I4276
sVtimeTook
p1120
I5
sVcompetition
p1121
Vhouston
p1122
sVlocation
p1123
VRight
p1124
sVstartTime
p1125
I222
sVendTime
p1126
I227
ssV_index
p1127
Vevents
p1128
sa(dp1129
V_type
p1130
Vgearplace
p1131
sV_id
p1132
VAVuRhfKmirJ1pZWxmJkc
p1133
sV_source
p1134
(dp1135
Vstatus
p1136
VSuccess
p1137
sVmatchPart
p1138
Vteleop
p1139
sVgameId
p1140
I197
sVteamNumber
p1141
I365
sVtimeTook
p1142
I10
sVcompetition
p1143
Vhouston
p1144
sVlocation
p1145
VRight
p1146
sVstartTime
p1147
I90
sVendTime
p1148
I100
ssV_index
p1149
Vevents
p1150
sa(dp1151
V_type
p1152
Vclimb
p1153
sV_id
p1154
VAVuRgZncirJ1pZWxmJj2
p1155
sV_source
p1156
(dp1157
Vstatus
p1158
VSuccess
p1159
sVmatchPart
p1160
Vteleop
p1161
sVgameId
p1162
I194
sVteamNumber
p1163
I5026
sVtimeTook
p1164
I10
sVcompetition
p1165
Vhouston
p1166
sVstartTime
p1167
I221
sVendTime
p1168
I231
ssV_index
p1169
Vevents
p1170
sa(dp1171
V_type
p1172
Vclimb
p1173
sV_id
p1174
VAVuRjWi5irJ1pZWxmJlF
p1175
sV_source
p1176
(dp1177
Vstatus
p1178
VSuccess
p1179
sVmatchPart
p1180
Vteleop
p1181
sVgameId
p1182
I245
sVteamNumber
p1183
I624
sVtimeTook
p1184
I2
sVcompetition
p1185
Vhouston
p1186
sVstartTime
p1187
I141
sVendTime
p1188
I143
ssV_index
p1189
Vevents
p1190
sa(dp1191
V_type
p1192
Vclimb
p1193
sV_id
p1194
VAVuRjWn1irJ1pZWxmJlG
p1195
sV_source
p1196
(dp1197
Vstatus
p1198
VFailure
p1199
sVmatchPart
p1200
Vteleop
p1201
sVgameId
p1202
I245
sVteamNumber
p1203
I6304
sVtimeTook
p1204
I3
sVcompetition
p1205
Vhouston
p1206
sVfailReason
p1207
VFailed because of no mechanical lock
p1208
sVstartTime
p1209
I150
sVendTime
p1210
I153
ssV_index
p1211
Vevents
p1212
sa(dp1213
V_type
p1214
Vpickup
p1215
sV_id
p1216
VAVuRjitOirJ1pZWxmJlM
p1217
sV_source
p1218
(dp1219
Vstatus
p1220
VSuccess
p1221
sVmatchPart
p1222
Vteleop
p1223
sVgameId
p1224
I197
sVteamNumber
p1225
I3402
sVtimeTook
p1226
I7
sVcompetition
p1227
Vhouston
p1228
sVlocation
p1229
VFeeder
p1230
sVstartTime
p1231
I40
sVendTime
p1232
I47
sVtype
p1233
VGear
p1234
ssV_index
p1235
Vevents
p1236
sa(dp1237
V_type
p1238
Vpickup
p1239
sV_id
p1240
VAVuRjqQlirJ1pZWxmJlO
p1241
sV_source
p1242
(dp1243
Vstatus
p1244
VSuccess
p1245
sVmatchPart
p1246
Vteleop
p1247
sVgameId
p1248
I197
sVteamNumber
p1249
I3402
sVtimeTook
p1250
I4
sVcompetition
p1251
Vhouston
p1252
sVlocation
p1253
VFeeder
p1254
sVstartTime
p1255
I72
sVendTime
p1256
I76
sVtype
p1257
VGear
p1258
ssV_index
p1259
Vevents
p1260
sa(dp1261
V_type
p1262
Vpickup
p1263
sV_id
p1264
VAVuRkCuwirJ1pZWxmJlY
p1265
sV_source
p1266
(dp1267
Vstatus
p1268
VSuccess
p1269
sVmatchPart
p1270
Vteleop
p1271
sVgameId
p1272
I247
sVteamNumber
p1273
I6705
sVtimeTook
p1274
I6
sVcompetition
p1275
Vhouston
p1276
sVlocation
p1277
VFeeder
p1278
sVstartTime
p1279
I32
sVendTime
p1280
I38
sVtype
p1281
VGear
p1282
ssV_index
p1283
Vevents
p1284
sa(dp1285
V_type
p1286
Vpickup
p1287
sV_id
p1288
VAVuRj7XsirJ1pZWxmJlU
p1289
sV_source
p1290
(dp1291
Vstatus
p1292
VSuccess
p1293
sVmatchPart
p1294
Vteleop
p1295
sVgameId
p1296
I245
sVteamNumber
p1297
I1011
sVtimeTook
p1298
I7
sVcompetition
p1299
Vhouston
p1300
sVlocation
p1301
VFloor
p1302
sVstartTime
p1303
I105
sVendTime
p1304
I112
sVtype
p1305
VGear
p1306
ssV_index
p1307
Vevents
p1308
sa(dp1309
V_type
p1310
Vgearplace
p1311
sV_id
p1312
VAVuRjTkbirJ1pZWxmJlD
p1313
sV_source
p1314
(dp1315
Vstatus
p1316
VSuccess
p1317
sVmatchPart
p1318
Vautonomous
p1319
sVgameId
p1320
I197
sVteamNumber
p1321
I3402
sVtimeTook
p1322
I5
sVcompetition
p1323
Vhouston
p1324
sVlocation
p1325
VCenter
p1326
sVstartTime
p1327
I3
sVendTime
p1328
I8
ssV_index
p1329
Vevents
p1330
sa(dp1331
V_type
p1332
Vgearplace
p1333
sV_id
p1334
VAVuRjeGWirJ1pZWxmJlL
p1335
sV_source
p1336
(dp1337
Vstatus
p1338
VSuccess
p1339
sVmatchPart
p1340
Vteleop
p1341
sVgameId
p1342
I245
sVteamNumber
p1343
I1011
sVtimeTook
p1344
I3
sVcompetition
p1345
Vhouston
p1346
sVlocation
p1347
VRight
p1348
sVstartTime
p1349
I45
sVendTime
p1350
I48
ssV_index
p1351
Vevents
p1352
sa(dp1353
V_type
p1354
VchassisFight
p1355
sV_id
p1356
VAVuRiqm3irJ1pZWxmJkx
p1357
sV_source
p1358
(dp1359
Vstatus
p1360
VFailure
p1361
sVmatchPart
p1362
Vteleop
p1363
sVtimeTook
p1364
I6
sVgameId
p1365
I197
sVteamNumber
p1366
I3834
sVinitiated
p1367
I00
sVcompetition
p1368
Vhouston
p1369
sVfailReason
p1370
NsVfightReason
p1371
NsVstartTime
p1372
I230
sVendTime
p1373
I236
ssV_index
p1374
Vevents
p1375
sa(dp1376
V_type
p1377
Vclimb
p1378
sV_id
p1379
VAVuRjdlnirJ1pZWxmJlK
p1380
sV_source
p1381
(dp1382
Vstatus
p1383
VSuccess
p1384
sVmatchPart
p1385
Vteleop
p1386
sVgameId
p1387
I243
sVteamNumber
p1388
I585
sVtimeTook
p1389
I13
sVcompetition
p1390
Vhouston
p1391
sVstartTime
p1392
I131
sVendTime
p1393
I144
ssV_index
p1394
Vevents
p1395
sa(dp1396
V_type
p1397
Vpickup
p1398
sV_id
p1399
VAVuRl3bqirJ1pZWxmJmG
p1400
sV_source
p1401
(dp1402
Vstatus
p1403
VFailure
p1404
sVmatchPart
p1405
Vteleop
p1406
sVgameId
p1407
I247
sVteamNumber
p1408
I6705
sVtimeTook
p1409
I5
sVcompetition
p1410
Vhouston
p1411
sVfailReason
p1412
VFailed because of interruption
p1413
sVlocation
p1414
VFeeder
p1415
sVstartTime
p1416
I120
sVendTime
p1417
I125
sVtype
p1418
VGear
p1419
ssV_index
p1420
Vevents
p1421
sa(dp1422
V_type
p1423
Vpickup
p1424
sV_id
p1425
VAVuRlIDLirJ1pZWxmJl7
p1426
sV_source
p1427
(dp1428
Vstatus
p1429
VSuccess
p1430
sVmatchPart
p1431
Vteleop
p1432
sVgameId
p1433
I247
sVteamNumber
p1434
I2183
sVtimeTook
p1435
I4
sVcompetition
p1436
Vhouston
p1437
sVlocation
p1438
VFeeder
p1439
sVstartTime
p1440
I186
sVendTime
p1441
I190
sVtype
p1442
VGear
p1443
ssV_index
p1444
Vevents
p1445
sa(dp1446
V_type
p1447
Vpickup
p1448
sV_id
p1449
VAVuRlARCirJ1pZWxmJl3
p1450
sV_source
p1451
(dp1452
Vstatus
p1453
VSuccess
p1454
sVmatchPart
p1455
Vteleop
p1456
sVgameId
p1457
I247
sVteamNumber
p1458
I2183
sVtimeTook
p1459
I8
sVcompetition
p1460
Vhouston
p1461
sVlocation
p1462
VFeeder
p1463
sVstartTime
p1464
I94
sVendTime
p1465
I102
sVtype
p1466
VGear
p1467
ssV_index
p1468
Vevents
p1469
sa(dp1470
V_type
p1471
Vpickup
p1472
sV_id
p1473
VAVuRmNoBirJ1pZWxmJmT
p1474
sV_source
p1475
(dp1476
Vstatus
p1477
VSuccess
p1478
sVmatchPart
p1479
Vteleop
p1480
sVgameId
p1481
I197
sVteamNumber
p1482
I6508
sVtimeTook
p1483
I4
sVcompetition
p1484
Vhouston
p1485
sVlocation
p1486
VFeeder
p1487
sVstartTime
p1488
I213
sVendTime
p1489
I217
sVtype
p1490
VGear
p1491
ssV_index
p1492
Vevents
p1493
sa(dp1494
V_type
p1495
Vpickup
p1496
sV_id
p1497
VAVuRkiGRirJ1pZWxmJlr
p1498
sV_source
p1499
(dp1500
Vstatus
p1501
VSuccess
p1502
sVmatchPart
p1503
Vteleop
p1504
sVgameId
p1505
I245
sVteamNumber
p1506
I418
sVtimeTook
p1507
I3
sVcompetition
p1508
Vhouston
p1509
sVlocation
p1510
VFeeder
p1511
sVstartTime
p1512
I84
sVendTime
p1513
I87
sVtype
p1514
VGear
p1515
ssV_index
p1516
Vevents
p1517
sa(dp1518
V_type
p1519
Vgearplace
p1520
sV_id
p1521
VAVuRk46eirJ1pZWxmJlz
p1522
sV_source
p1523
(dp1524
Vstatus
p1525
VSuccess
p1526
sVmatchPart
p1527
Vteleop
p1528
sVgameId
p1529
I247
sVteamNumber
p1530
I2183
sVtimeTook
p1531
I4
sVcompetition
p1532
Vhouston
p1533
sVlocation
p1534
VCenter
p1535
sVstartTime
p1536
I70
sVendTime
p1537
I74
ssV_index
p1538
Vevents
p1539
sa(dp1540
V_type
p1541
Vgearplace
p1542
sV_id
p1543
VAVuRk8ZCirJ1pZWxmJl0
p1544
sV_source
p1545
(dp1546
Vstatus
p1547
VSuccess
p1548
sVmatchPart
p1549
Vteleop
p1550
sVgameId
p1551
I247
sVteamNumber
p1552
I2183
sVtimeTook
p1553
I5
sVcompetition
p1554
Vhouston
p1555
sVlocation
p1556
VRight
p1557
sVstartTime
p1558
I147
sVendTime
p1559
I152
ssV_index
p1560
Vevents
p1561
sa(dp1562
V_type
p1563
Vgearplace
p1564
sV_id
p1565
VAVuRmGFRirJ1pZWxmJmO
p1566
sV_source
p1567
(dp1568
Vstatus
p1569
VSuccess
p1570
sVmatchPart
p1571
Vteleop
p1572
sVgameId
p1573
I247
sVteamNumber
p1574
I8
sVtimeTook
p1575
I9
sVcompetition
p1576
Vhouston
p1577
sVlocation
p1578
VRight
p1579
sVstartTime
p1580
I22
sVendTime
p1581
I31
ssV_index
p1582
Vevents
p1583
sa(dp1584
V_type
p1585
Vclimb
p1586
sV_id
p1587
VAVuRl9pOirJ1pZWxmJmK
p1588
sV_source
p1589
(dp1590
Vstatus
p1591
VSuccess
p1592
sVmatchPart
p1593
Vteleop
p1594
sVgameId
p1595
I247
sVteamNumber
p1596
I6705
sVtimeTook
p1597
I14
sVcompetition
p1598
Vhouston
p1599
sVstartTime
p1600
I136
sVendTime
p1601
I150
ssV_index
p1602
Vevents
p1603
sa(dp1604
V_type
p1605
Vpickup
p1606
sV_id
p1607
VAVuRm2E0irJ1pZWxmJmg
p1608
sV_source
p1609
(dp1610
Vstatus
p1611
VSuccess
p1612
sVmatchPart
p1613
Vteleop
p1614
sVgameId
p1615
I247
sVteamNumber
p1616
I8
sVtimeTook
p1617
I1
sVcompetition
p1618
Vhouston
p1619
sVlocation
p1620
VFeeder
p1621
sVstartTime
p1622
I112
sVendTime
p1623
I113
sVtype
p1624
VGear
p1625
ssV_index
p1626
Vevents
p1627
sa(dp1628
V_type
p1629
Vpickup
p1630
sV_id
p1631
VAVuRnsYeirJ1pZWxmJmr
p1632
sV_source
p1633
(dp1634
Vstatus
p1635
VSuccess
p1636
sVmatchPart
p1637
Vteleop
p1638
sVgameId
p1639
I192
sVteamNumber
p1640
I3158
sVtimeTook
p1641
I2
sVcompetition
p1642
Vhouston
p1643
sVlocation
p1644
VFloor
p1645
sVstartTime
p1646
I69
sVendTime
p1647
I71
sVtype
p1648
VGear
p1649
ssV_index
p1650
Vevents
p1651
sa(dp1652
V_type
p1653
Vpickup
p1654
sV_id
p1655
VAVuRmN4xirJ1pZWxmJmU
p1656
sV_source
p1657
(dp1658
Vstatus
p1659
VSuccess
p1660
sVmatchPart
p1661
Vteleop
p1662
sVgameId
p1663
I247
sVteamNumber
p1664
I8
sVtimeTook
p1665
I5
sVcompetition
p1666
Vhouston
p1667
sVlocation
p1668
VFloor
p1669
sVstartTime
p1670
I44
sVendTime
p1671
I49
sVtype
p1672
VBall
p1673
ssV_index
p1674
Vevents
p1675
sa(dp1676
V_type
p1677
Vpickup
p1678
sV_id
p1679
VAVuRmcHzirJ1pZWxmJma
p1680
sV_source
p1681
(dp1682
Vstatus
p1683
VSuccess
p1684
sVmatchPart
p1685
Vteleop
p1686
sVgameId
p1687
I247
sVteamNumber
p1688
I8
sVtimeTook
p1689
I8
sVcompetition
p1690
Vhouston
p1691
sVlocation
p1692
VFeeder
p1693
sVstartTime
p1694
I66
sVendTime
p1695
I74
sVtype
p1696
VGear
p1697
ssV_index
p1698
Vevents
p1699
sa(dp1700
V_type
p1701
Vgearplace
p1702
sV_id
p1703
VAVuRmOuYirJ1pZWxmJmV
p1704
sV_source
p1705
(dp1706
Vstatus
p1707
VSuccess
p1708
sVmatchPart
p1709
Vteleop
p1710
sVgameId
p1711
I245
sVteamNumber
p1712
I6508
sVtimeTook
p1713
I7
sVcompetition
p1714
Vhouston
p1715
sVlocation
p1716
VRight
p1717
sVstartTime
p1718
I49
sVendTime
p1719
I56
ssV_index
p1720
Vevents
p1721
sa(dp1722
V_type
p1723
Vgearplace
p1724
sV_id
p1725
VAVuRmWmjirJ1pZWxmJmY
p1726
sV_source
p1727
(dp1728
Vstatus
p1729
VSuccess
p1730
sVmatchPart
p1731
Vteleop
p1732
sVgameId
p1733
I197
sVteamNumber
p1734
I6508
sVtimeTook
p1735
I7
sVcompetition
p1736
Vhouston
p1737
sVlocation
p1738
VLeft
p1739
sVstartTime
p1740
I246
sVendTime
p1741
I253
ssV_index
p1742
Vevents
p1743
sa(dp1744
V_type
p1745
Vgearplace
p1746
sV_id
p1747
VAVuRmQkuirJ1pZWxmJmW
p1748
sV_source
p1749
(dp1750
Vstatus
p1751
VSuccess
p1752
sVmatchPart
p1753
Vteleop
p1754
sVgameId
p1755
I197
sVteamNumber
p1756
I6508
sVtimeTook
p1757
I7
sVcompetition
p1758
Vhouston
p1759
sVlocation
p1760
VLeft
p1761
sVstartTime
p1762
I222
sVendTime
p1763
I229
ssV_index
p1764
Vevents
p1765
sa(dp1766
V_type
p1767
Vgearplace
p1768
sV_id
p1769
VAVuRmffmirJ1pZWxmJmc
p1770
sV_source
p1771
(dp1772
Vstatus
p1773
VSuccess
p1774
sVmatchPart
p1775
Vteleop
p1776
sVgameId
p1777
I247
sVteamNumber
p1778
I8
sVtimeTook
p1779
I5
sVcompetition
p1780
Vhouston
p1781
sVlocation
p1782
VRight
p1783
sVstartTime
p1784
I80
sVendTime
p1785
I85
ssV_index
p1786
Vevents
p1787
sa(dp1788
V_type
p1789
Vclimb
p1790
sV_id
p1791
VAVuRm5zEirJ1pZWxmJmh
p1792
sV_source
p1793
(dp1794
Vstatus
p1795
VSuccess
p1796
sVmatchPart
p1797
Vteleop
p1798
sVgameId
p1799
I247
sVteamNumber
p1800
I8
sVtimeTook
p1801
I10
sVcompetition
p1802
Vhouston
p1803
sVstartTime
p1804
I127
sVendTime
p1805
I137
ssV_index
p1806
Vevents
p1807
sa(dp1808
V_type
p1809
Vpickup
p1810
sV_id
p1811
VAVuRox3_irJ1pZWxmJnT
p1812
sV_source
p1813
(dp1814
Vstatus
p1815
VSuccess
p1816
sVmatchPart
p1817
Vteleop
p1818
sVgameId
p1819
I257
sVteamNumber
p1820
I1482
sVtimeTook
p1821
I4
sVcompetition
p1822
Vhouston
p1823
sVlocation
p1824
VFeeder
p1825
sVstartTime
p1826
I72
sVendTime
p1827
I76
sVtype
p1828
VGear
p1829
ssV_index
p1830
Vevents
p1831
sa(dp1832
V_type
p1833
Vpickup
p1834
sV_id
p1835
VAVuRoWpEirJ1pZWxmJm5
p1836
sV_source
p1837
(dp1838
Vstatus
p1839
VSuccess
p1840
sVmatchPart
p1841
Vteleop
p1842
sVgameId
p1843
I197
sVteamNumber
p1844
I4592
sVtimeTook
p1845
I3
sVcompetition
p1846
Vhouston
p1847
sVlocation
p1848
VFloor
p1849
sVstartTime
p1850
I77
sVendTime
p1851
I80
sVtype
p1852
VGear
p1853
ssV_index
p1854
Vevents
p1855
sa(dp1856
V_type
p1857
Vpickup
p1858
sV_id
p1859
VAVuRoPuLirJ1pZWxmJm2
p1860
sV_source
p1861
(dp1862
Vstatus
p1863
VSuccess
p1864
sVmatchPart
p1865
Vteleop
p1866
sVgameId
p1867
I197
sVteamNumber
p1868
I4592
sVtimeTook
p1869
I4
sVcompetition
p1870
Vhouston
p1871
sVlocation
p1872
VFloor
p1873
sVstartTime
p1874
I53
sVendTime
p1875
I57
sVtype
p1876
VGear
p1877
ssV_index
p1878
Vevents
p1879
sa(dp1880
V_type
p1881
Vgearplace
p1882
sV_id
p1883
VAVuRpctlirJ1pZWxmJnj
p1884
sV_source
p1885
(dp1886
Vstatus
p1887
VSuccess
p1888
sVmatchPart
p1889
Vteleop
p1890
sVgameId
p1891
I197
sVteamNumber
p1892
I4592
sVtimeTook
p1893
I4
sVcompetition
p1894
Vhouston
p1895
sVlocation
p1896
VLeft
p1897
sVstartTime
p1898
I114
sVendTime
p1899
I118
ssV_index
p1900
Vevents
p1901
sa(dp1902
V_type
p1903
Vcomment
p1904
sV_id
p1905
VAVuRok_MirJ1pZWxmJnJ
p1906
sV_source
p1907
(dp1908
Vcontent
p1909
V
p1910
sVtimeTook
p1911
NsVgameId
p1912
I197
sVcompetition
p1913
Vhouston
p1914
sVteamNumber
p1915
I4592
ssV_index
p1916
Vevents
p1917
sa(dp1918
V_type
p1919
Vcomment
p1920
sV_id
p1921
VAVuRolGPirJ1pZWxmJnL
p1922
sV_source
p1923
(dp1924
Vcontent
p1925
g1910
sVtimeTook
p1926
NsVgameId
p1927
I197
sVcompetition
p1928
Vhouston
p1929
sVteamNumber
p1930
I4592
ssV_index
p1931
Vevents
p1932
sa(dp1933
V_type
p1934
Vcomment
p1935
sV_id
p1936
VAVuRoTkYirJ1pZWxmJm4
p1937
sV_source
p1938
(dp1939
Vcontent
p1940
g1910
sVtimeTook
p1941
NsVgameId
p1942
I257
sVcompetition
p1943
Vhouston
p1944
sVteamNumber
p1945
I1482
ssV_index
p1946
Vevents
p1947
sa(dp1948
V_type
p1949
Vcomment
p1950
sV_id
p1951
VAVuRokb-irJ1pZWxmJnD
p1952
sV_source
p1953
(dp1954
Vcontent
p1955
g1910
sVtimeTook
p1956
NsVgameId
p1957
I197
sVcompetition
p1958
Vhouston
p1959
sVteamNumber
p1960
I4592
ssV_index
p1961
Vevents
p1962
sa(dp1963
V_type
p1964
Vcomment
p1965
sV_id
p1966
VAVuRok6firJ1pZWxmJnI
p1967
sV_source
p1968
(dp1969
Vcontent
p1970
g1910
sVtimeTook
p1971
NsVgameId
p1972
I197
sVcompetition
p1973
Vhouston
p1974
sVteamNumber
p1975
I4592
ssV_index
p1976
Vevents
p1977
sa(dp1978
V_type
p1979
Vcomment
p1980
sV_id
p1981
VAVuRoow_irJ1pZWxmJnO
p1982
sV_source
p1983
(dp1984
Vcontent
p1985
g1910
sVtimeTook
p1986
NsVgameId
p1987
I195
sVcompetition
p1988
Vhouston
p1989
sVteamNumber
p1990
I2905
ssV_index
p1991
Vevents
p1992
sa(dp1993
V_type
p1994
Vpickup
p1995
sV_id
p1996
VAVuRsiuzirJ1pZWxmJoH
p1997
sV_source
p1998
(dp1999
Vstatus
p2000
VSuccess
p2001
sVmatchPart
p2002
Vteleop
p2003
sVgameId
p2004
I195
sVteamNumber
p2005
I4561
sVtimeTook
p2006
I2
sVcompetition
p2007
Vhouston
p2008
sVlocation
p2009
VFeeder
p2010
sVstartTime
p2011
I70
sVendTime
p2012
I72
sVtype
p2013
VGear
p2014
ssV_index
p2015
Vevents
p2016
sa(dp2017
V_type
p2018
Vpickup
p2019
sV_id
p2020
VAVuRsi1UirJ1pZWxmJoI
p2021
sV_source
p2022
(dp2023
Vstatus
p2024
VFailure
p2025
sVmatchPart
p2026
Vteleop
p2027
sVgameId
p2028
I195
sVteamNumber
p2029
I2905
sVtimeTook
p2030
I4
sVcompetition
p2031
Vhouston
p2032
sVfailReason
p2033
VFailed because of mechanical failure
p2034
sVlocation
p2035
VFloor
p2036
sVstartTime
p2037
I113
sVendTime
p2038
I117
sVtype
p2039
VGear
p2040
ssV_index
p2041
Vevents
p2042
sa(dp2043
V_type
p2044
Vpickup
p2045
sV_id
p2046
VAVuRt_HuirJ1pZWxmJoa
p2047
sV_source
p2048
(dp2049
Vstatus
p2050
VSuccess
p2051
sVmatchPart
p2052
Vteleop
p2053
sVgameId
p2054
I197
sVteamNumber
p2055
I3229
sVtimeTook
p2056
I18
sVcompetition
p2057
Vhouston
p2058
sVlocation
p2059
VFeeder
p2060
sVstartTime
p2061
I35
sVendTime
p2062
I53
sVtype
p2063
VGear
p2064
ssV_index
p2065
Vevents
p2066
sa(dp2067
V_type
p2068
Vpickup
p2069
sV_id
p2070
VAVuRsp8_irJ1pZWxmJoK
p2071
sV_source
p2072
(dp2073
Vstatus
p2074
VSuccess
p2075
sVmatchPart
p2076
Vteleop
p2077
sVgameId
p2078
I195
sVteamNumber
p2079
I4561
sVtimeTook
p2080
I3
sVcompetition
p2081
Vhouston
p2082
sVlocation
p2083
VFeeder
p2084
sVstartTime
p2085
I87
sVendTime
p2086
I90
sVtype
p2087
VGear
p2088
ssV_index
p2089
Vevents
p2090
sa(dp2091
V_type
p2092
Vpickup
p2093
sV_id
p2094
VAVuRsX-NirJ1pZWxmJoF
p2095
sV_source
p2096
(dp2097
Vstatus
p2098
VSuccess
p2099
sVmatchPart
p2100
Vteleop
p2101
sVgameId
p2102
I195
sVteamNumber
p2103
I4561
sVtimeTook
p2104
I4
sVcompetition
p2105
Vhouston
p2106
sVlocation
p2107
VFeeder
p2108
sVstartTime
p2109
I41
sVendTime
p2110
I45
sVtype
p2111
VGear
p2112
ssV_index
p2113
Vevents
p2114
sa(dp2115
V_type
p2116
Vpickup
p2117
sV_id
p2118
VAVuRqlk8irJ1pZWxmJnu
p2119
sV_source
p2120
(dp2121
Vstatus
p2122
VSuccess
p2123
sVmatchPart
p2124
Vteleop
p2125
sVgameId
p2126
I258
sVteamNumber
p2127
I365
sVtimeTook
p2128
I4
sVcompetition
p2129
Vhouston
p2130
sVlocation
p2131
VFeeder
p2132
sVstartTime
p2133
I19
sVendTime
p2134
I23
sVtype
p2135
VGear
p2136
ssV_index
p2137
Vevents
p2138
sa(dp2139
V_type
p2140
Vclimb
p2141
sV_id
p2142
VAVuRsqONirJ1pZWxmJoL
p2143
sV_source
p2144
(dp2145
Vstatus
p2146
VFailure
p2147
sVmatchPart
p2148
Vteleop
p2149
sVgameId
p2150
I195
sVteamNumber
p2151
I2905
sVtimeTook
p2152
I17
sVcompetition
p2153
Vhouston
p2154
sVfailReason
p2155
VFailed because of mechanical failure
p2156
sVstartTime
p2157
I129
sVendTime
p2158
I146
ssV_index
p2159
Vevents
p2160
sa(dp2161
V_type
p2162
Vgearplace
p2163
sV_id
p2164
VAVuRpdA_irJ1pZWxmJnk
p2165
sV_source
p2166
(dp2167
Vstatus
p2168
VSuccess
p2169
sVmatchPart
p2170
Vteleop
p2171
sVgameId
p2172
I257
sVteamNumber
p2173
I1482
sVtimeTook
p2174
I5
sVcompetition
p2175
Vhouston
p2176
sVlocation
p2177
VRight
p2178
sVstartTime
p2179
I157
sVendTime
p2180
I162
ssV_index
p2181
Vevents
p2182
sa(dp2183
V_type
p2184
VchassisFight
p2185
sV_id
p2186
VAVuRtybQirJ1pZWxmJoY
p2187
sV_source
p2188
(dp2189
Vstatus
p2190
VSuccess
p2191
sVmatchPart
p2192
Vteleop
p2193
sVtimeTook
p2194
I4
sVgameId
p2195
I259
sVteamNumber
p2196
I4219
sVinitiated
p2197
I01
sVcompetition
p2198
Vhouston
p2199
sVfailReason
p2200
NsVfightReason
p2201
NsVstartTime
p2202
I157
sVendTime
p2203
I161
ssV_index
p2204
Vevents
p2205
sa(dp2206
V_type
p2207
Vgearplace
p2208
sV_id
p2209
VAVuRsmcBirJ1pZWxmJoJ
p2210
sV_source
p2211
(dp2212
Vstatus
p2213
VSuccess
p2214
sVmatchPart
p2215
Vteleop
p2216
sVgameId
p2217
I195
sVteamNumber
p2218
I4561
sVtimeTook
p2219
I0
sVcompetition
p2220
Vhouston
p2221
sVlocation
p2222
VLeft
p2223
sVstartTime
p2224
I77
sVendTime
p2225
I77
ssV_index
p2226
Vevents
p2227
sa(dp2228
V_type
p2229
Vpickup
p2230
sV_id
p2231
VAVuRvG7EirJ1pZWxmJo4
p2232
sV_source
p2233
(dp2234
Vstatus
p2235
VFailure
p2236
sVmatchPart
p2237
Vteleop
p2238
sVgameId
p2239
I237
sVteamNumber
p2240
I2905
sVtimeTook
p2241
I4
sVcompetition
p2242
Vhouston
p2243
sVfailReason
p2244
VFailed because of mechanical failure
p2245
sVlocation
p2246
VFeeder
p2247
sVstartTime
p2248
I86
sVendTime
p2249
I90
sVtype
p2250
VGear
p2251
ssV_index
p2252
Vevents
p2253
sa(dp2254
V_type
p2255
Vshooting
p2256
sV_id
p2257
VAVuRukmRirJ1pZWxmJot
p2258
sV_source
p2259
(dp2260
Vstatus
p2261
VFailure
p2262
sVmatchPart
p2263
Vteleop
p2264
sVgameId
p2265
I262
sVteamNumber
p2266
I4590
sVtimeTook
p2267
I19
sVcompetition
p2268
Vhouston
p2269
sVfailReason
p2270
VFailed because of mechanical failure
p2271
sVlocation
p2272
VHigh
p2273
sVstartTime
p2274
I47
sVendTime
p2275
I66
ssV_index
p2276
Vevents
p2277
sa(dp2278
V_type
p2279
Vpickup
p2280
sV_id
p2281
VAVuRuGvCirJ1pZWxmJof
p2282
sV_source
p2283
(dp2284
Vstatus
p2285
VSuccess
p2286
sVmatchPart
p2287
Vteleop
p2288
sVgameId
p2289
I197
sVteamNumber
p2290
I3229
sVtimeTook
p2291
I4
sVcompetition
p2292
Vhouston
p2293
sVlocation
p2294
VFeeder
p2295
sVstartTime
p2296
I69
sVendTime
p2297
I73
sVtype
p2298
VGear
p2299
ssV_index
p2300
Vevents
p2301
sa(dp2302
V_type
p2303
Vpickup
p2304
sV_id
p2305
VAVuRutQ-irJ1pZWxmJox
p2306
sV_source
p2307
(dp2308
Vstatus
p2309
VSuccess
p2310
sVmatchPart
p2311
Vteleop
p2312
sVgameId
p2313
I262
sVteamNumber
p2314
I4590
sVtimeTook
p2315
I1
sVcompetition
p2316
Vhouston
p2317
sVlocation
p2318
VHopper
p2319
sVstartTime
p2320
I76
sVendTime
p2321
I77
sVtype
p2322
VBall
p2323
ssV_index
p2324
Vevents
p2325
sa(dp2326
V_type
p2327
Vpickup
p2328
sV_id
p2329
VAVuRv4bYirJ1pZWxmJpO
p2330
sV_source
p2331
(dp2332
Vstatus
p2333
VSuccess
p2334
sVmatchPart
p2335
Vteleop
p2336
sVgameId
p2337
I254
sVteamNumber
p2338
I1574
sVtimeTook
p2339
I0
sVcompetition
p2340
Vhouston
p2341
sVlocation
p2342
VHopper
p2343
sVstartTime
p2344
I18
sVendTime
p2345
I18
sVtype
p2346
VBall
p2347
ssV_index
p2348
Vevents
p2349
sa(dp2350
V_type
p2351
Vgearplace
p2352
sV_id
p2353
VAVuRumu5irJ1pZWxmJou
p2354
sV_source
p2355
(dp2356
Vstatus
p2357
VSuccess
p2358
sVmatchPart
p2359
Vteleop
p2360
sVgameId
p2361
I237
sVteamNumber
p2362
I2905
sVtimeTook
p2363
I5
sVcompetition
p2364
Vhouston
p2365
sVlocation
p2366
VCenter
p2367
sVstartTime
p2368
I25
sVendTime
p2369
I30
ssV_index
p2370
Vevents
p2371
sa(dp2372
V_type
p2373
Vgearplace
p2374
sV_id
p2375
VAVuRucU-irJ1pZWxmJoq
p2376
sV_source
p2377
(dp2378
Vstatus
p2379
VSuccess
p2380
sVmatchPart
p2381
Vteleop
p2382
sVgameId
p2383
I262
sVteamNumber
p2384
I4590
sVtimeTook
p2385
I5
sVcompetition
p2386
Vhouston
p2387
sVlocation
p2388
VRight
p2389
sVstartTime
p2390
I37
sVendTime
p2391
I42
ssV_index
p2392
Vevents
p2393
sa(dp2394
V_type
p2395
Vgearplace
p2396
sV_id
p2397
VAVuRvupJirJ1pZWxmJpK
p2398
sV_source
p2399
(dp2400
Vstatus
p2401
VSuccess
p2402
sVmatchPart
p2403
Vteleop
p2404
sVgameId
p2405
I247
sVteamNumber
p2406
I1002
sVtimeTook
p2407
I1
sVcompetition
p2408
Vhouston
p2409
sVlocation
p2410
VLeft
p2411
sVstartTime
p2412
I103
sVendTime
p2413
I104
ssV_index
p2414
Vevents
p2415
sa(dp2416
V_type
p2417
Vpickup
p2418
sV_id
p2419
VAVuRw2a2irJ1pZWxmJpz
p2420
sV_source
p2421
(dp2422
Vstatus
p2423
VSuccess
p2424
sVmatchPart
p2425
Vteleop
p2426
sVgameId
p2427
I254
sVteamNumber
p2428
I1574
sVtimeTook
p2429
I5
sVcompetition
p2430
Vhouston
p2431
sVlocation
p2432
VFloor
p2433
sVstartTime
p2434
I103
sVendTime
p2435
I108
sVtype
p2436
VBall
p2437
ssV_index
p2438
Vevents
p2439
sa(dp2440
V_type
p2441
Vpickup
p2442
sV_id
p2443
VAVuRwwvyirJ1pZWxmJpv
p2444
sV_source
p2445
(dp2446
Vstatus
p2447
VSuccess
p2448
sVmatchPart
p2449
Vteleop
p2450
sVgameId
p2451
I262
sVteamNumber
p2452
I1574
sVtimeTook
p2453
I2
sVcompetition
p2454
Vhouston
p2455
sVlocation
p2456
VFloor
p2457
sVstartTime
p2458
I57
sVendTime
p2459
I59
sVtype
p2460
VGear
p2461
ssV_index
p2462
Vevents
p2463
sa(dp2464
V_type
p2465
Vpickup
p2466
sV_id
p2467
VAVuRxeopirJ1pZWxmJqG
p2468
sV_source
p2469
(dp2470
Vstatus
p2471
VSuccess
p2472
sVmatchPart
p2473
Vteleop
p2474
sVgameId
p2475
I254
sVteamNumber
p2476
I3824
sVtimeTook
p2477
I8
sVcompetition
p2478
Vhouston
p2479
sVlocation
p2480
VFloor
p2481
sVstartTime
p2482
I32
sVendTime
p2483
I40
sVtype
p2484
VGear
p2485
ssV_index
p2486
Vevents
p2487
sa(dp2488
V_type
p2489
Vpickup
p2490
sV_id
p2491
VAVuRwpiVirJ1pZWxmJpo
p2492
sV_source
p2493
(dp2494
Vstatus
p2495
VSuccess
p2496
sVmatchPart
p2497
Vteleop
p2498
sVgameId
p2499
I254
sVteamNumber
p2500
I4592
sVtimeTook
p2501
I2
sVcompetition
p2502
Vhouston
p2503
sVlocation
p2504
VFloor
p2505
sVstartTime
p2506
I20
sVendTime
p2507
I22
sVtype
p2508
VGear
p2509
ssV_index
p2510
Vevents
p2511
sa(dp2512
V_type
p2513
Vgearplace
p2514
sV_id
p2515
VAVuRwm7LirJ1pZWxmJpn
p2516
sV_source
p2517
(dp2518
Vstatus
p2519
VSuccess
p2520
sVmatchPart
p2521
Vteleop
p2522
sVgameId
p2523
I257
sVteamNumber
p2524
I5614
sVtimeTook
p2525
I1
sVcompetition
p2526
Vhouston
p2527
sVlocation
p2528
VRight
p2529
sVstartTime
p2530
I111
sVendTime
p2531
I112
ssV_index
p2532
Vevents
p2533
sa(dp2534
V_type
p2535
Vclimb
p2536
sV_id
p2537
VAVuRxJoGirJ1pZWxmJp_
p2538
sV_source
p2539
(dp2540
Vstatus
p2541
VSuccess
p2542
sVmatchPart
p2543
Vteleop
p2544
sVgameId
p2545
I254
sVteamNumber
p2546
I1574
sVtimeTook
p2547
I9
sVcompetition
p2548
Vhouston
p2549
sVstartTime
p2550
I159
sVendTime
p2551
I168
ssV_index
p2552
Vevents
p2553
sa(dp2554
V_type
p2555
Vcomment
p2556
sV_id
p2557
VAVuRwzOcirJ1pZWxmJpx
p2558
sV_source
p2559
(dp2560
Vcontent
p2561
V\u05e7\u05dc\u05e2\u05d5 41\u000a\u05d4\u05d7\u05d8\u05d9\u05d0\u05d5 7\u000a85% \u05e7\u05dc\u05d9\u05e2\u05d4
p2562
sVtimeTook
p2563
NsVgameId
p2564
I254
sVcompetition
p2565
Vhouston
p2566
sVteamNumber
p2567
I1574
ssV_index
p2568
Vevents
p2569
sa(dp2570
V_type
p2571
Vcomment
p2572
sV_id
p2573
VAVuRxh5dirJ1pZWxmJqI
p2574
sV_source
p2575
(dp2576
Vcontent
p2577
V29 KPA \u05de\u05ea 42 \u05db\u05d3\u05d5\u05e8\u05d9\u05dd
p2578
sVtimeTook
p2579
NsVgameId
p2580
I262
sVcompetition
p2581
Vhouston
p2582
sVteamNumber
p2583
I1574
ssV_index
p2584
Vevents
p2585
sa(dp2586
V_type
p2587
Vpickup
p2588
sV_id
p2589
VAVuRyXqHirJ1pZWxmJqo
p2590
sV_source
p2591
(dp2592
Vstatus
p2593
VSuccess
p2594
sVmatchPart
p2595
Vteleop
p2596
sVgameId
p2597
I249
sVteamNumber
p2598
I4590
sVtimeTook
p2599
I4
sVcompetition
p2600
Vhouston
p2601
sVlocation
p2602
VHopper
p2603
sVstartTime
p2604
I234
sVendTime
p2605
I238
sVtype
p2606
VBall
p2607
ssV_index
p2608
Vevents
p2609
sa(dp2610
V_type
p2611
Vpickup
p2612
sV_id
p2613
VAVuRy4hairJ1pZWxmJq7
p2614
sV_source
p2615
(dp2616
Vstatus
p2617
VSuccess
p2618
sVmatchPart
p2619
Vteleop
p2620
sVgameId
p2621
I238
sVteamNumber
p2622
I6508
sVtimeTook
p2623
I3
sVcompetition
p2624
Vhouston
p2625
sVlocation
p2626
VFeeder
p2627
sVstartTime
p2628
I79
sVendTime
p2629
I82
sVtype
p2630
VGear
p2631
ssV_index
p2632
Vevents
p2633
sa(dp2634
V_type
p2635
Vgearplace
p2636
sV_id
p2637
VAVuRx0uEirJ1pZWxmJqX
p2638
sV_source
p2639
(dp2640
Vstatus
p2641
VSuccess
p2642
sVmatchPart
p2643
Vteleop
p2644
sVgameId
p2645
I254
sVteamNumber
p2646
I3824
sVtimeTook
p2647
I3
sVcompetition
p2648
Vhouston
p2649
sVlocation
p2650
VCenter
p2651
sVstartTime
p2652
I90
sVendTime
p2653
I93
ssV_index
p2654
Vevents
p2655
sa(dp2656
V_type
p2657
Vgearplace
p2658
sV_id
p2659
VAVuRxjbsirJ1pZWxmJqK
p2660
sV_source
p2661
(dp2662
Vstatus
p2663
VSuccess
p2664
sVmatchPart
p2665
Vteleop
p2666
sVgameId
p2667
I258
sVteamNumber
p2668
I418
sVtimeTook
p2669
I4
sVcompetition
p2670
Vhouston
p2671
sVlocation
p2672
VCenter
p2673
sVstartTime
p2674
I43
sVendTime
p2675
I47
ssV_index
p2676
Vevents
p2677
sa(dp2678
V_type
p2679
Vgearplace
p2680
sV_id
p2681
VAVuRyQoHirJ1pZWxmJqm
p2682
sV_source
p2683
(dp2684
Vstatus
p2685
VSuccess
p2686
sVmatchPart
p2687
Vteleop
p2688
sVgameId
p2689
I254
sVteamNumber
p2690
I4592
sVtimeTook
p2691
I9
sVcompetition
p2692
Vhouston
p2693
sVlocation
p2694
VRight
p2695
sVstartTime
p2696
I127
sVendTime
p2697
I136
ssV_index
p2698
Vevents
p2699
sa(dp2700
V_type
p2701
Vgearplace
p2702
sV_id
p2703
VAVuRyHyMirJ1pZWxmJqi
p2704
sV_source
p2705
(dp2706
Vstatus
p2707
VSuccess
p2708
sVmatchPart
p2709
Vteleop
p2710
sVgameId
p2711
I249
sVteamNumber
p2712
I4590
sVtimeTook
p2713
I10
sVcompetition
p2714
Vhouston
p2715
sVlocation
p2716
VLeft
p2717
sVstartTime
p2718
I185
sVendTime
p2719
I195
ssV_index
p2720
Vevents
p2721
sa(dp2722
V_type
p2723
Vgearplace
p2724
sV_id
p2725
VAVuRy3gEirJ1pZWxmJq5
p2726
sV_source
p2727
(dp2728
Vstatus
p2729
VSuccess
p2730
sVmatchPart
p2731
Vteleop
p2732
sVgameId
p2733
I257
sVteamNumber
p2734
I435
sVtimeTook
p2735
I2
sVcompetition
p2736
Vhouston
p2737
sVlocation
p2738
VRight
p2739
sVstartTime
p2740
I79
sVendTime
p2741
I81
ssV_index
p2742
Vevents
p2743
sa(dp2744
V_type
p2745
Vgearplace
p2746
sV_id
p2747
VAVuRxpt9irJ1pZWxmJqM
p2748
sV_source
p2749
(dp2750
Vstatus
p2751
VSuccess
p2752
sVmatchPart
p2753
Vteleop
p2754
sVgameId
p2755
I258
sVteamNumber
p2756
I418
sVtimeTook
p2757
I2
sVcompetition
p2758
Vhouston
p2759
sVlocation
p2760
VRight
p2761
sVstartTime
p2762
I67
sVendTime
p2763
I69
ssV_index
p2764
Vevents
p2765
sa(dp2766
V_type
p2767
Vgearplace
p2768
sV_id
p2769
VAVuRyxl7irJ1pZWxmJq0
p2770
sV_source
p2771
(dp2772
Vstatus
p2773
VSuccess
p2774
sVmatchPart
p2775
Vteleop
p2776
sVgameId
p2777
I254
sVteamNumber
p2778
I2655
sVtimeTook
p2779
I8
sVcompetition
p2780
Vhouston
p2781
sVlocation
p2782
VLeft
p2783
sVstartTime
p2784
I34
sVendTime
p2785
I42
ssV_index
p2786
Vevents
p2787
sa(dp2788
V_type
p2789
Vgearplace
p2790
sV_id
p2791
VAVuRy8TAirJ1pZWxmJq9
p2792
sV_source
p2793
(dp2794
Vstatus
p2795
VFailure
p2796
sVmatchPart
p2797
Vteleop
p2798
sVgameId
p2799
I258
sVteamNumber
p2800
I955
sVtimeTook
p2801
I5
sVcompetition
p2802
Vhouston
p2803
sVfailReason
p2804
VFailed because of mechanical failure / gear fell
p2805
sVlocation
p2806
VRight
p2807
sVstartTime
p2808
I48
sVendTime
p2809
I53
ssV_index
p2810
Vevents
p2811
sa(dp2812
V_type
p2813
Vpickup
p2814
sV_id
p2815
VAVuRzZ4CirJ1pZWxmJrb
p2816
sV_source
p2817
(dp2818
Vstatus
p2819
VSuccess
p2820
sVmatchPart
p2821
Vteleop
p2822
sVgameId
p2823
I244
sVteamNumber
p2824
I4060
sVtimeTook
p2825
I6
sVcompetition
p2826
Vhouston
p2827
sVlocation
p2828
VFeeder
p2829
sVstartTime
p2830
I72
sVendTime
p2831
I78
sVtype
p2832
VGear
p2833
ssV_index
p2834
Vevents
p2835
sa(dp2836
V_type
p2837
Vpickup
p2838
sV_id
p2839
VAVuRzUovirJ1pZWxmJrX
p2840
sV_source
p2841
(dp2842
Vstatus
p2843
VSuccess
p2844
sVmatchPart
p2845
Vteleop
p2846
sVgameId
p2847
I259
sVteamNumber
p2848
I585
sVtimeTook
p2849
I2
sVcompetition
p2850
Vhouston
p2851
sVlocation
p2852
VFloor
p2853
sVstartTime
p2854
I110
sVendTime
p2855
I112
sVtype
p2856
VGear
p2857
ssV_index
p2858
Vevents
p2859
sa(dp2860
V_type
p2861
Vclimb
p2862
sV_id
p2863
VAVuRzd-VirJ1pZWxmJrc
p2864
sV_source
p2865
(dp2866
Vstatus
p2867
VFailure
p2868
sVmatchPart
p2869
Vteleop
p2870
sVgameId
p2871
I258
sVteamNumber
p2872
I955
sVtimeTook
p2873
I5
sVcompetition
p2874
Vhouston
p2875
sVfailReason
p2876
VFailed because of mechanical failure
p2877
sVstartTime
p2878
I145
sVendTime
p2879
I150
ssV_index
p2880
Vevents
p2881
sa(dp2882
V_type
p2883
Vgearplace
p2884
sV_id
p2885
VAVuRztiOirJ1pZWxmJri
p2886
sV_source
p2887
(dp2888
Vstatus
p2889
VSuccess
p2890
sVmatchPart
p2891
Vautonomous
p2892
sVgameId
p2893
I258
sVteamNumber
p2894
I2183
sVtimeTook
p2895
I17
sVcompetition
p2896
Vhouston
p2897
sVlocation
p2898
VRight
p2899
sVstartTime
p2900
I7
sVendTime
p2901
I24
ssV_index
p2902
Vevents
p2903
sa(dp2904
V_type
p2905
Vgearplace
p2906
sV_id
p2907
VAVuRy_uSirJ1pZWxmJrD
p2908
sV_source
p2909
(dp2910
Vstatus
p2911
VSuccess
p2912
sVmatchPart
p2913
Vteleop
p2914
sVgameId
p2915
I257
sVteamNumber
p2916
I435
sVtimeTook
p2917
I4
sVcompetition
p2918
Vhouston
p2919
sVlocation
p2920
VCenter
p2921
sVstartTime
p2922
I109
sVendTime
p2923
I113
ssV_index
p2924
Vevents
p2925
sa(dp2926
V_type
p2927
Vgearplace
p2928
sV_id
p2929
VAVuRzYDkirJ1pZWxmJra
p2930
sV_source
p2931
(dp2932
Vstatus
p2933
VSuccess
p2934
sVmatchPart
p2935
Vteleop
p2936
sVgameId
p2937
I259
sVteamNumber
p2938
I585
sVtimeTook
p2939
I4
sVcompetition
p2940
Vhouston
p2941
sVlocation
p2942
VLeft
p2943
sVstartTime
p2944
I119
sVendTime
p2945
I123
ssV_index
p2946
Vevents
p2947
sa(dp2948
V_type
p2949
Vgearplace
p2950
sV_id
p2951
VAVuRy_dkirJ1pZWxmJrC
p2952
sV_source
p2953
(dp2954
Vstatus
p2955
VSuccess
p2956
sVmatchPart
p2957
Vteleop
p2958
sVgameId
p2959
I244
sVteamNumber
p2960
I4060
sVtimeTook
p2961
I3
sVcompetition
p2962
Vhouston
p2963
sVlocation
p2964
VLeft
p2965
sVstartTime
p2966
I21
sVendTime
p2967
I24
ssV_index
p2968
Vevents
p2969
sa(dp2970
V_type
p2971
Vclimb
p2972
sV_id
p2973
VAVuRz0xbirJ1pZWxmJrl
p2974
sV_source
p2975
(dp2976
Vstatus
p2977
VSuccess
p2978
sVmatchPart
p2979
Vteleop
p2980
sVgameId
p2981
I244
sVteamNumber
p2982
I4060
sVtimeTook
p2983
I14
sVcompetition
p2984
Vhouston
p2985
sVstartTime
p2986
I131
sVendTime
p2987
I145
ssV_index
p2988
Vevents
p2989
sa(dp2990
V_type
p2991
Vgearplace
p2992
sV_id
p2993
VAVuR0dhsirJ1pZWxmJr3
p2994
sV_source
p2995
(dp2996
Vstatus
p2997
VFailure
p2998
sVmatchPart
p2999
Vteleop
p3000
sVgameId
p3001
I257
sVteamNumber
p3002
I3991
sVtimeTook
p3003
I4
sVcompetition
p3004
Vhouston
p3005
sVfailReason
p3006
VFailed because of interruption
p3007
sVlocation
p3008
VLeft
p3009
sVstartTime
p3010
I17
sVendTime
p3011
I21
ssV_index
p3012
Vevents
p3013
sa(dp3014
V_type
p3015
Vpickup
p3016
sV_id
p3017
VAVuR0vYKirJ1pZWxmJr-
p3018
sV_source
p3019
(dp3020
Vstatus
p3021
VSuccess
p3022
sVmatchPart
p3023
Vteleop
p3024
sVgameId
p3025
I259
sVteamNumber
p3026
I5472
sVtimeTook
p3027
I14
sVcompetition
p3028
Vhouston
p3029
sVlocation
p3030
VFeeder
p3031
sVstartTime
p3032
I49
sVendTime
p3033
I63
sVtype
p3034
VGear
p3035
ssV_index
p3036
Vevents
p3037
sa(dp3038
V_type
p3039
Vpickup
p3040
sV_id
p3041
VAVuR1EsEirJ1pZWxmJsA
p3042
sV_source
p3043
(dp3044
Vstatus
p3045
VSuccess
p3046
sVmatchPart
p3047
Vteleop
p3048
sVgameId
p3049
I259
sVteamNumber
p3050
I5472
sVtimeTook
p3051
I3
sVcompetition
p3052
Vhouston
p3053
sVlocation
p3054
VFeeder
p3055
sVstartTime
p3056
I96
sVendTime
p3057
I99
sVtype
p3058
VGear
p3059
ssV_index
p3060
Vevents
p3061
sa(dp3062
V_type
p3063
Vpickup
p3064
sV_id
p3065
VAVuR0TFxirJ1pZWxmJr0
p3066
sV_source
p3067
(dp3068
Vstatus
p3069
VSuccess
p3070
sVmatchPart
p3071
Vteleop
p3072
sVgameId
p3073
I243
sVteamNumber
p3074
I2478
sVtimeTook
p3075
I1
sVcompetition
p3076
Vhouston
p3077
sVlocation
p3078
VFeeder
p3079
sVstartTime
p3080
I30
sVendTime
p3081
I31
sVtype
p3082
VGear
p3083
ssV_index
p3084
Vevents
p3085
sa(dp3086
V_type
p3087
Vpickup
p3088
sV_id
p3089
VAVuR0DE2irJ1pZWxmJrt
p3090
sV_source
p3091
(dp3092
Vstatus
p3093
VSuccess
p3094
sVmatchPart
p3095
Vteleop
p3096
sVgameId
p3097
I259
sVteamNumber
p3098
I4592
sVtimeTook
p3099
I3
sVcompetition
p3100
Vhouston
p3101
sVlocation
p3102
VFloor
p3103
sVstartTime
p3104
I74
sVendTime
p3105
I77
sVtype
p3106
VGear
p3107
ssV_index
p3108
Vevents
p3109
sa(dp3110
V_type
p3111
Vclimb
p3112
sV_id
p3113
VAVuR0RVPirJ1pZWxmJrz
p3114
sV_source
p3115
(dp3116
Vstatus
p3117
VFailure
p3118
sVmatchPart
p3119
Vteleop
p3120
sVgameId
p3121
I258
sVteamNumber
p3122
I2183
sVtimeTook
p3123
I12
sVcompetition
p3124
Vhouston
p3125
sVfailReason
p3126
VFailed because game ended
p3127
sVstartTime
p3128
I141
sVendTime
p3129
I153
ssV_index
p3130
Vevents
p3131
sa(dp3132
V_type
p3133
Vgearplace
p3134
sV_id
p3135
VAVuRz1vIirJ1pZWxmJrn
p3136
sV_source
p3137
(dp3138
Vstatus
p3139
VSuccess
p3140
sVmatchPart
p3141
Vteleop
p3142
sVgameId
p3143
I258
sVteamNumber
p3144
I2183
sVtimeTook
p3145
I8
sVcompetition
p3146
Vhouston
p3147
sVlocation
p3148
VCenter
p3149
sVstartTime
p3150
I43
sVendTime
p3151
I51
ssV_index
p3152
Vevents
p3153
sa(dp3154
V_type
p3155
Vgearplace
p3156
sV_id
p3157
VAVuR0bw3irJ1pZWxmJr2
p3158
sV_source
p3159
(dp3160
Vstatus
p3161
VSuccess
p3162
sVmatchPart
p3163
Vteleop
p3164
sVgameId
p3165
I243
sVteamNumber
p3166
I2478
sVtimeTook
p3167
I4
sVcompetition
p3168
Vhouston
p3169
sVlocation
p3170
VCenter
p3171
sVstartTime
p3172
I46
sVendTime
p3173
I50
ssV_index
p3174
Vevents
p3175
sa(dp3176
V_type
p3177
Vpickup
p3178
sV_id
p3179
VAVuR21oSirJ1pZWxmJsc
p3180
sV_source
p3181
(dp3182
Vstatus
p3183
VSuccess
p3184
sVmatchPart
p3185
Vteleop
p3186
sVgameId
p3187
I262
sVteamNumber
p3188
I5816
sVtimeTook
p3189
I4
sVcompetition
p3190
Vhouston
p3191
sVlocation
p3192
VFeeder
p3193
sVstartTime
p3194
I49
sVendTime
p3195
I53
sVtype
p3196
VGear
p3197
ssV_index
p3198
Vevents
p3199
sa(dp3200
V_type
p3201
Vpickup
p3202
sV_id
p3203
VAVuR2kqUirJ1pZWxmJsU
p3204
sV_source
p3205
(dp3206
Vstatus
p3207
VSuccess
p3208
sVmatchPart
p3209
Vteleop
p3210
sVgameId
p3211
I257
sVteamNumber
p3212
I3991
sVtimeTook
p3213
I7
sVcompetition
p3214
Vhouston
p3215
sVlocation
p3216
VFloor
p3217
sVstartTime
p3218
I41
sVendTime
p3219
I48
sVtype
p3220
VGear
p3221
ssV_index
p3222
Vevents
p3223
sa(dp3224
V_type
p3225
Vgearplace
p3226
sV_id
p3227
VAVuR1ehWirJ1pZWxmJsM
p3228
sV_source
p3229
(dp3230
Vstatus
p3231
VSuccess
p3232
sVmatchPart
p3233
Vteleop
p3234
sVgameId
p3235
I243
sVteamNumber
p3236
I2478
sVtimeTook
p3237
I4
sVcompetition
p3238
Vhouston
p3239
sVlocation
p3240
VCenter
p3241
sVstartTime
p3242
I123
sVendTime
p3243
I127
ssV_index
p3244
Vevents
p3245
sa(dp3246
V_type
p3247
Vgearplace
p3248
sV_id
p3249
VAVuR1zUeirJ1pZWxmJsR
p3250
sV_source
p3251
(dp3252
Vstatus
p3253
VSuccess
p3254
sVmatchPart
p3255
Vteleop
p3256
sVgameId
p3257
I262
sVteamNumber
p3258
I6361
sVtimeTook
p3259
I11
sVcompetition
p3260
Vhouston
p3261
sVlocation
p3262
VRight
p3263
sVstartTime
p3264
I122
sVendTime
p3265
I133
ssV_index
p3266
Vevents
p3267
sa(dp3268
V_type
p3269
Vgearplace
p3270
sV_id
p3271
VAVuR1oFEirJ1pZWxmJsO
p3272
sV_source
p3273
(dp3274
Vstatus
p3275
VSuccess
p3276
sVmatchPart
p3277
Vteleop
p3278
sVgameId
p3279
I262
sVteamNumber
p3280
I6361
sVtimeTook
p3281
I4
sVcompetition
p3282
Vhouston
p3283
sVlocation
p3284
VRight
p3285
sVstartTime
p3286
I87
sVendTime
p3287
I91
ssV_index
p3288
Vevents
p3289
sa(dp3290
V_type
p3291
Vgearplace
p3292
sV_id
p3293
VAVuR2pYiirJ1pZWxmJsW
p3294
sV_source
p3295
(dp3296
Vstatus
p3297
VSuccess
p3298
sVmatchPart
p3299
Vteleop
p3300
sVgameId
p3301
I257
sVteamNumber
p3302
I3991
sVtimeTook
p3303
I1
sVcompetition
p3304
Vhouston
p3305
sVlocation
p3306
VLeft
p3307
sVstartTime
p3308
I63
sVendTime
p3309
I64
ssV_index
p3310
Vevents
p3311
sa(dp3312
V_type
p3313
Vgearplace
p3314
sV_id
p3315
VAVuR2yAwirJ1pZWxmJsa
p3316
sV_source
p3317
(dp3318
Vstatus
p3319
VSuccess
p3320
sVmatchPart
p3321
Vteleop
p3322
sVgameId
p3323
I262
sVteamNumber
p3324
I5816
sVtimeTook
p3325
I2
sVcompetition
p3326
Vhouston
p3327
sVlocation
p3328
VLeft
p3329
sVstartTime
p3330
I41
sVendTime
p3331
I43
ssV_index
p3332
Vevents
p3333
sa(dp3334
V_type
p3335
Vgearplace
p3336
sV_id
p3337
VAVuR1TylirJ1pZWxmJsH
p3338
sV_source
p3339
(dp3340
Vstatus
p3341
VSuccess
p3342
sVmatchPart
p3343
Vteleop
p3344
sVgameId
p3345
I262
sVteamNumber
p3346
I6361
sVtimeTook
p3347
I0
sVcompetition
p3348
Vhouston
p3349
sVlocation
p3350
VLeft
p3351
sVstartTime
p3352
I22
sVendTime
p3353
I22
ssV_index
p3354
Vevents
p3355
sa(dp3356
V_type
p3357
Vclimb
p3358
sV_id
p3359
VAVuR1vKdirJ1pZWxmJsQ
p3360
sV_source
p3361
(dp3362
Vstatus
p3363
VSuccess
p3364
sVmatchPart
p3365
Vteleop
p3366
sVgameId
p3367
I262
sVteamNumber
p3368
I3834
sVtimeTook
p3369
I11
sVcompetition
p3370
Vhouston
p3371
sVstartTime
p3372
I134
sVendTime
p3373
I145
ssV_index
p3374
Vevents
p3375
sa(dp3376
V_type
p3377
Vgearplace
p3378
sV_id
p3379
VAVuR4VU3irJ1pZWxmJs-
p3380
sV_source
p3381
(dp3382
Vstatus
p3383
VFailure
p3384
sVmatchPart
p3385
Vteleop
p3386
sVgameId
p3387
I259
sVteamNumber
p3388
I2655
sVtimeTook
p3389
I14
sVcompetition
p3390
Vhouston
p3391
sVfailReason
p3392
VFailed because of mechanical failure / gear fell
p3393
sVlocation
p3394
VCenter
p3395
sVstartTime
p3396
I75
sVendTime
p3397
I89
ssV_index
p3398
Vevents
p3399
sa(dp3400
V_type
p3401
Vpickup
p3402
sV_id
p3403
VAVuR4OA1irJ1pZWxmJs9
p3404
sV_source
p3405
(dp3406
Vstatus
p3407
VSuccess
p3408
sVmatchPart
p3409
Vteleop
p3410
sVgameId
p3411
I259
sVteamNumber
p3412
I2655
sVtimeTook
p3413
I3
sVcompetition
p3414
Vhouston
p3415
sVlocation
p3416
VFeeder
p3417
sVstartTime
p3418
I61
sVendTime
p3419
I64
sVtype
p3420
VGear
p3421
ssV_index
p3422
Vevents
p3423
sa(dp3424
V_type
p3425
Vpickup
p3426
sV_id
p3427
VAVuR29XwirJ1pZWxmJsi
p3428
sV_source
p3429
(dp3430
Vstatus
p3431
VSuccess
p3432
sVmatchPart
p3433
Vteleop
p3434
sVgameId
p3435
I262
sVteamNumber
p3436
I5816
sVtimeTook
p3437
I1
sVcompetition
p3438
Vhouston
p3439
sVlocation
p3440
VFeeder
p3441
sVstartTime
p3442
I74
sVendTime
p3443
I75
sVtype
p3444
VGear
p3445
ssV_index
p3446
Vevents
p3447
sa(dp3448
V_type
p3449
Vgearplace
p3450
sV_id
p3451
VAVuR36LQirJ1pZWxmJs6
p3452
sV_source
p3453
(dp3454
Vstatus
p3455
VSuccess
p3456
sVmatchPart
p3457
Vautonomous
p3458
sVgameId
p3459
I259
sVteamNumber
p3460
I2655
sVtimeTook
p3461
I1
sVcompetition
p3462
Vhouston
p3463
sVlocation
p3464
VCenter
p3465
sVstartTime
p3466
I2
sVendTime
p3467
I3
ssV_index
p3468
Vevents
p3469
sa(dp3470
V_type
p3471
Vgearplace
p3472
sV_id
p3473
VAVuR3pNxirJ1pZWxmJs4
p3474
sV_source
p3475
(dp3476
Vstatus
p3477
VSuccess
p3478
sVmatchPart
p3479
Vteleop
p3480
sVgameId
p3481
I257
sVteamNumber
p3482
I6560
sVtimeTook
p3483
I4
sVcompetition
p3484
Vhouston
p3485
sVlocation
p3486
VRight
p3487
sVstartTime
p3488
I118
sVendTime
p3489
I122
ssV_index
p3490
Vevents
p3491
sa(dp3492
V_type
p3493
Vgearplace
p3494
sV_id
p3495
VAVuR3R68irJ1pZWxmJsx
p3496
sV_source
p3497
(dp3498
Vstatus
p3499
VSuccess
p3500
sVmatchPart
p3501
Vteleop
p3502
sVgameId
p3503
I257
sVteamNumber
p3504
I6560
sVtimeTook
p3505
I5
sVcompetition
p3506
Vhouston
p3507
sVlocation
p3508
VRight
p3509
sVstartTime
p3510
I76
sVendTime
p3511
I81
ssV_index
p3512
Vevents
p3513
sa(dp3514
V_type
p3515
Vgearplace
p3516
sV_id
p3517
VAVuR3DbVirJ1pZWxmJsm
p3518
sV_source
p3519
(dp3520
Vstatus
p3521
VSuccess
p3522
sVmatchPart
p3523
Vteleop
p3524
sVgameId
p3525
I257
sVteamNumber
p3526
I3991
sVtimeTook
p3527
I12
sVcompetition
p3528
Vhouston
p3529
sVlocation
p3530
VLeft
p3531
sVstartTime
p3532
I107
sVendTime
p3533
I119
ssV_index
p3534
Vevents
p3535
sa(dp3536
V_type
p3537
Vgearplace
p3538
sV_id
p3539
VAVuR3JwKirJ1pZWxmJsr
p3540
sV_source
p3541
(dp3542
Vstatus
p3543
VSuccess
p3544
sVmatchPart
p3545
Vteleop
p3546
sVgameId
p3547
I257
sVteamNumber
p3548
I6560
sVtimeTook
p3549
I2
sVcompetition
p3550
Vhouston
p3551
sVlocation
p3552
VRight
p3553
sVstartTime
p3554
I48
sVendTime
p3555
I50
ssV_index
p3556
Vevents
p3557
sa(dp3558
V_type
p3559
Vgearplace
p3560
sV_id
p3561
VAVuR25npirJ1pZWxmJsg
p3562
sV_source
p3563
(dp3564
Vstatus
p3565
VSuccess
p3566
sVmatchPart
p3567
Vteleop
p3568
sVgameId
p3569
I262
sVteamNumber
p3570
I5816
sVtimeTook
p3571
I4
sVcompetition
p3572
Vhouston
p3573
sVlocation
p3574
VLeft
p3575
sVstartTime
p3576
I61
sVendTime
p3577
I65
ssV_index
p3578
Vevents
p3579
sa(dp3580
V_type
p3581
Vpickup
p3582
sV_id
p3583
VAVuR4a2girJ1pZWxmJtA
p3584
sV_source
p3585
(dp3586
Vstatus
p3587
VSuccess
p3588
sVmatchPart
p3589
Vteleop
p3590
sVgameId
p3591
I259
sVteamNumber
p3592
I2655
sVtimeTook
p3593
I3
sVcompetition
p3594
Vhouston
p3595
sVlocation
p3596
VFeeder
p3597
sVstartTime
p3598
I97
sVendTime
p3599
I100
sVtype
p3600
VGear
p3601
ssV_index
p3602
Vevents
p3603
sa(dp3604
V_type
p3605
Vpickup
p3606
sV_id
p3607
VAVuR4pHlirJ1pZWxmJtK
p3608
sV_source
p3609
(dp3610
Vstatus
p3611
VSuccess
p3612
sVmatchPart
p3613
Vteleop
p3614
sVgameId
p3615
I258
sVteamNumber
p3616
I3653
sVtimeTook
p3617
I3
sVcompetition
p3618
Vhouston
p3619
sVlocation
p3620
VFeeder
p3621
sVstartTime
p3622
I20
sVendTime
p3623
I23
sVtype
p3624
VGear
p3625
ssV_index
p3626
Vevents
p3627
sa(dp3628
V_type
p3629
Vpickup
p3630
sV_id
p3631
VAVuR44VZirJ1pZWxmJtR
p3632
sV_source
p3633
(dp3634
Vstatus
p3635
VSuccess
p3636
sVmatchPart
p3637
Vteleop
p3638
sVgameId
p3639
I247
sVteamNumber
p3640
I115
sVtimeTook
p3641
I2
sVcompetition
p3642
Vhouston
p3643
sVlocation
p3644
VFeeder
p3645
sVstartTime
p3646
I27
sVendTime
p3647
I29
sVtype
p3648
VGear
p3649
ssV_index
p3650
Vevents
p3651
sa(dp3652
V_type
p3653
Vpickup
p3654
sV_id
p3655
VAVuR4d-tirJ1pZWxmJtC
p3656
sV_source
p3657
(dp3658
Vstatus
p3659
VSuccess
p3660
sVmatchPart
p3661
Vteleop
p3662
sVgameId
p3663
I196
sVteamNumber
p3664
I1477
sVtimeTook
p3665
I2
sVcompetition
p3666
Vhouston
p3667
sVlocation
p3668
VFloor
p3669
sVstartTime
p3670
I27
sVendTime
p3671
I29
sVtype
p3672
VGear
p3673
ssV_index
p3674
Vevents
p3675
sa(dp3676
V_type
p3677
Vpickup
p3678
sV_id
p3679
VAVuR4hX8irJ1pZWxmJtG
p3680
sV_source
p3681
(dp3682
Vstatus
p3683
VSuccess
p3684
sVmatchPart
p3685
Vteleop
p3686
sVgameId
p3687
I196
sVteamNumber
p3688
I1477
sVtimeTook
p3689
I4
sVcompetition
p3690
Vhouston
p3691
sVlocation
p3692
VFloor
p3693
sVstartTime
p3694
I34
sVendTime
p3695
I38
sVtype
p3696
VGear
p3697
ssV_index
p3698
Vevents
p3699
sa(dp3700
V_type
p3701
Vgearplace
p3702
sV_id
p3703
VAVuR4dFOirJ1pZWxmJtB
p3704
sV_source
p3705
(dp3706
Vstatus
p3707
VSuccess
p3708
sVmatchPart
p3709
Vautonomous
p3710
sVgameId
p3711
I258
sVteamNumber
p3712
I3653
sVtimeTook
p3713
I5
sVcompetition
p3714
Vhouston
p3715
sVlocation
p3716
VCenter
p3717
sVstartTime
p3718
I0
sVendTime
p3719
I5
ssV_index
p3720
Vevents
p3721
sa(dp3722
V_type
p3723
Vgearplace
p3724
sV_id
p3725
VAVuR4f_DirJ1pZWxmJtE
p3726
sV_source
p3727
(dp3728
Vstatus
p3729
VSuccess
p3730
sVmatchPart
p3731
Vteleop
p3732
sVgameId
p3733
I259
sVteamNumber
p3734
I2655
sVtimeTook
p3735
I2
sVcompetition
p3736
Vhouston
p3737
sVlocation
p3738
VLeft
p3739
sVstartTime
p3740
I115
sVendTime
p3741
I117
ssV_index
p3742
Vevents
p3743
sa(dp3744
V_type
p3745
Vpickup
p3746
sV_id
p3747
VAVuR7H4JirJ1pZWxmJuG
p3748
sV_source
p3749
(dp3750
Vstatus
p3751
VSuccess
p3752
sVmatchPart
p3753
Vteleop
p3754
sVgameId
p3755
I259
sVteamNumber
p3756
I6705
sVtimeTook
p3757
I3
sVcompetition
p3758
Vhouston
p3759
sVlocation
p3760
VFeeder
p3761
sVstartTime
p3762
I29
sVendTime
p3763
I32
sVtype
p3764
VGear
p3765
ssV_index
p3766
Vevents
p3767
sa(dp3768
V_type
p3769
Vpickup
p3770
sV_id
p3771
VAVuR5be_irJ1pZWxmJts
p3772
sV_source
p3773
(dp3774
Vstatus
p3775
VSuccess
p3776
sVmatchPart
p3777
Vteleop
p3778
sVgameId
p3779
I258
sVteamNumber
p3780
I3653
sVtimeTook
p3781
I4
sVcompetition
p3782
Vhouston
p3783
sVlocation
p3784
VFeeder
p3785
sVstartTime
p3786
I80
sVendTime
p3787
I84
sVtype
p3788
VGear
p3789
ssV_index
p3790
Vevents
p3791
sa(dp3792
V_type
p3793
Vpickup
p3794
sV_id
p3795
VAVuR7mcxirJ1pZWxmJuN
p3796
sV_source
p3797
(dp3798
Vstatus
p3799
VSuccess
p3800
sVmatchPart
p3801
Vteleop
p3802
sVgameId
p3803
I259
sVteamNumber
p3804
I6705
sVtimeTook
p3805
I1
sVcompetition
p3806
Vhouston
p3807
sVlocation
p3808
VFeeder
p3809
sVstartTime
p3810
I54
sVendTime
p3811
I55
sVtype
p3812
VGear
p3813
ssV_index
p3814
Vevents
p3815
sa(dp3816
V_type
p3817
Vpickup
p3818
sV_id
p3819
VAVuR8WibirJ1pZWxmJuX
p3820
sV_source
p3821
(dp3822
Vstatus
p3823
VSuccess
p3824
sVmatchPart
p3825
Vteleop
p3826
sVgameId
p3827
I250
sVteamNumber
p3828
I2468
sVtimeTook
p3829
I4
sVcompetition
p3830
Vhouston
p3831
sVlocation
p3832
VFloor
p3833
sVstartTime
p3834
I24
sVendTime
p3835
I28
sVtype
p3836
VGear
p3837
ssV_index
p3838
Vevents
p3839
sa(dp3840
V_type
p3841
Vgearplace
p3842
sV_id
p3843
VAVuR7yNLirJ1pZWxmJuR
p3844
sV_source
p3845
(dp3846
Vstatus
p3847
VSuccess
p3848
sVmatchPart
p3849
Vautonomous
p3850
sVgameId
p3851
I262
sVteamNumber
p3852
I2642
sVtimeTook
p3853
I1
sVcompetition
p3854
Vhouston
p3855
sVlocation
p3856
VRight
p3857
sVstartTime
p3858
I6
sVendTime
p3859
I7
ssV_index
p3860
Vevents
p3861
sa(dp3862
V_type
p3863
Vgearplace
p3864
sV_id
p3865
VAVuR8k6BirJ1pZWxmJuZ
p3866
sV_source
p3867
(dp3868
Vstatus
p3869
VSuccess
p3870
sVmatchPart
p3871
Vteleop
p3872
sVgameId
p3873
I250
sVteamNumber
p3874
I2468
sVtimeTook
p3875
I7
sVcompetition
p3876
Vhouston
p3877
sVlocation
p3878
VCenter
p3879
sVstartTime
p3880
I73
sVendTime
p3881
I80
ssV_index
p3882
Vevents
p3883
sa(dp3884
V_type
p3885
Vgearplace
p3886
sV_id
p3887
VAVuR5eqDirJ1pZWxmJtt
p3888
sV_source
p3889
(dp3890
Vstatus
p3891
VSuccess
p3892
sVmatchPart
p3893
Vteleop
p3894
sVgameId
p3895
I258
sVteamNumber
p3896
I2468
sVtimeTook
p3897
I2
sVcompetition
p3898
Vhouston
p3899
sVlocation
p3900
VCenter
p3901
sVstartTime
p3902
I82
sVendTime
p3903
I84
ssV_index
p3904
Vevents
p3905
sa(dp3906
V_type
p3907
Vgearplace
p3908
sV_id
p3909
VAVuR6ymcirJ1pZWxmJt_
p3910
sV_source
p3911
(dp3912
Vstatus
p3913
VSuccess
p3914
sVmatchPart
p3915
Vteleop
p3916
sVgameId
p3917
I259
sVteamNumber
p3918
I6705
sVtimeTook
p3919
I3
sVcompetition
p3920
Vhouston
p3921
sVlocation
p3922
VRight
p3923
sVstartTime
p3924
I19
sVendTime
p3925
I22
ssV_index
p3926
Vevents
p3927
sa(dp3928
V_type
p3929
VchassisFight
p3930
sV_id
p3931
VAVuR7UmhirJ1pZWxmJuK
p3932
sV_source
p3933
(dp3934
Vstatus
p3935
VFailure
p3936
sVmatchPart
p3937
Vteleop
p3938
sVtimeTook
p3939
I6
sVgameId
p3940
I191
sVteamNumber
p3941
I4561
sVinitiated
p3942
I00
sVcompetition
p3943
Vhouston
p3944
sVfailReason
p3945
NsVfightReason
p3946
NsVstartTime
p3947
I123
sVendTime
p3948
I129
ssV_index
p3949
Vevents
p3950
sa(dp3951
V_type
p3952
Vpickup
p3953
sV_id
p3954
VAVuSCew7irJ1pZWxmJwD
p3955
sV_source
p3956
(dp3957
Vstatus
p3958
VSuccess
p3959
sVmatchPart
p3960
Vteleop
p3961
sVgameId
p3962
I264
sVteamNumber
p3963
I2928
sVtimeTook
p3964
I14
sVcompetition
p3965
Vhouston
p3966
sVlocation
p3967
VFeeder
p3968
sVstartTime
p3969
I80
sVendTime
p3970
I94
sVtype
p3971
VGear
p3972
ssV_index
p3973
Vevents
p3974
sa(dp3975
V_type
p3976
Vpickup
p3977
sV_id
p3978
VAVuR_VnHirJ1pZWxmJu0
p3979
sV_source
p3980
(dp3981
Vstatus
p3982
VSuccess
p3983
sVmatchPart
p3984
Vteleop
p3985
sVgameId
p3986
I264
sVteamNumber
p3987
I2928
sVtimeTook
p3988
I5
sVcompetition
p3989
Vhouston
p3990
sVlocation
p3991
VFeeder
p3992
sVstartTime
p3993
I28
sVendTime
p3994
I33
sVtype
p3995
VGear
p3996
ssV_index
p3997
Vevents
p3998
sa(dp3999
V_type
p4000
Vpickup
p4001
sV_id
p4002
VAVuSCCphirJ1pZWxmJvy
p4003
sV_source
p4004
(dp4005
Vstatus
p4006
VSuccess
p4007
sVmatchPart
p4008
Vteleop
p4009
sVgameId
p4010
I264
sVteamNumber
p4011
I2928
sVtimeTook
p4012
I5
sVcompetition
p4013
Vhouston
p4014
sVlocation
p4015
VFeeder
p4016
sVstartTime
p4017
I27
sVendTime
p4018
I32
sVtype
p4019
VGear
p4020
ssV_index
p4021
Vevents
p4022
sa(dp4023
V_type
p4024
Vpickup
p4025
sV_id
p4026
VAVuSCbPzirJ1pZWxmJwC
p4027
sV_source
p4028
(dp4029
Vstatus
p4030
VSuccess
p4031
sVmatchPart
p4032
Vteleop
p4033
sVgameId
p4034
I267
sVteamNumber
p4035
I6705
sVtimeTook
p4036
I2
sVcompetition
p4037
Vhouston
p4038
sVlocation
p4039
VFeeder
p4040
sVstartTime
p4041
I81
sVendTime
p4042
I83
sVtype
p4043
VGear
p4044
ssV_index
p4045
Vevents
p4046
sa(dp4047
V_type
p4048
Vgearplace
p4049
sV_id
p4050
VAVuSAzW8irJ1pZWxmJvk
p4051
sV_source
p4052
(dp4053
Vstatus
p4054
VSuccess
p4055
sVmatchPart
p4056
Vautonomous
p4057
sVgameId
p4058
I267
sVteamNumber
p4059
I3229
sVtimeTook
p4060
I3
sVcompetition
p4061
Vhouston
p4062
sVlocation
p4063
VCenter
p4064
sVstartTime
p4065
I1
sVendTime
p4066
I4
ssV_index
p4067
Vevents
p4068
sa(dp4069
V_type
p4070
Vgearplace
p4071
sV_id
p4072
VAVuSCgzsirJ1pZWxmJwE
p4073
sV_source
p4074
(dp4075
Vstatus
p4076
VSuccess
p4077
sVmatchPart
p4078
Vteleop
p4079
sVgameId
p4080
I267
sVteamNumber
p4081
I6705
sVtimeTook
p4082
I5
sVcompetition
p4083
Vhouston
p4084
sVlocation
p4085
VCenter
p4086
sVstartTime
p4087
I93
sVendTime
p4088
I98
ssV_index
p4089
Vevents
p4090
sa(dp4091
V_type
p4092
Vgearplace
p4093
sV_id
p4094
VAVuR_Rt5irJ1pZWxmJuy
p4095
sV_source
p4096
(dp4097
Vstatus
p4098
VSuccess
p4099
sVmatchPart
p4100
Vteleop
p4101
sVgameId
p4102
I264
sVteamNumber
p4103
I2928
sVtimeTook
p4104
I5
sVcompetition
p4105
Vhouston
p4106
sVlocation
p4107
VRight
p4108
sVstartTime
p4109
I18
sVendTime
p4110
I23
ssV_index
p4111
Vevents
p4112
sa(dp4113
V_type
p4114
Vclimb
p4115
sV_id
p4116
VAVuSAMCMirJ1pZWxmJvW
p4117
sV_source
p4118
(dp4119
Vstatus
p4120
VSuccess
p4121
sVmatchPart
p4122
Vteleop
p4123
sVgameId
p4124
I264
sVteamNumber
p4125
I5026
sVtimeTook
p4126
I5
sVcompetition
p4127
Vhouston
p4128
sVstartTime
p4129
I130
sVendTime
p4130
I135
ssV_index
p4131
Vevents
p4132
sa(dp4133
V_type
p4134
Vpickup
p4135
sV_id
p4136
VAVuR_X0VirJ1pZWxmJu4
p4137
sV_source
p4138
(dp4139
Vstatus
p4140
VSuccess
p4141
sVmatchPart
p4142
Vteleop
p4143
sVgameId
p4144
I262
sVteamNumber
p4145
I2642
sVtimeTook
p4146
I1
sVcompetition
p4147
Vhouston
p4148
sVlocation
p4149
VFloor
p4150
sVstartTime
p4151
I72
sVendTime
p4152
I73
sVtype
p4153
VGear
p4154
ssV_index
p4155
Vevents
p4156
sa(dp4157
V_type
p4158
Vpickup
p4159
sV_id
p4160
VAVuSDF9WirJ1pZWxmJwV
p4161
sV_source
p4162
(dp4163
Vstatus
p4164
VSuccess
p4165
sVmatchPart
p4166
Vteleop
p4167
sVgameId
p4168
I267
sVteamNumber
p4169
I3229
sVtimeTook
p4170
I12
sVcompetition
p4171
Vhouston
p4172
sVlocation
p4173
VFeeder
p4174
sVstartTime
p4175
I53
sVendTime
p4176
I65
sVtype
p4177
VGear
p4178
ssV_index
p4179
Vevents
p4180
sa(dp4181
V_type
p4182
Vpickup
p4183
sV_id
p4184
VAVuSDuxQirJ1pZWxmJwe
p4185
sV_source
p4186
(dp4187
Vstatus
p4188
VSuccess
p4189
sVmatchPart
p4190
Vteleop
p4191
sVgameId
p4192
I267
sVteamNumber
p4193
I3229
sVtimeTook
p4194
I12
sVcompetition
p4195
Vhouston
p4196
sVlocation
p4197
VFeeder
p4198
sVstartTime
p4199
I84
sVendTime
p4200
I96
sVtype
p4201
VGear
p4202
ssV_index
p4203
Vevents
p4204
sa(dp4205
V_type
p4206
Vpickup
p4207
sV_id
p4208
VAVuSEyPWirJ1pZWxmJxJ
p4209
sV_source
p4210
(dp4211
Vstatus
p4212
VSuccess
p4213
sVmatchPart
p4214
Vteleop
p4215
sVgameId
p4216
I267
sVteamNumber
p4217
I1011
sVtimeTook
p4218
I9
sVcompetition
p4219
Vhouston
p4220
sVlocation
p4221
VFloor
p4222
sVstartTime
p4223
I71
sVendTime
p4224
I80
sVtype
p4225
VGear
p4226
ssV_index
p4227
Vevents
p4228
sa(dp4229
V_type
p4230
Vpickup
p4231
sV_id
p4232
VAVuSE9ogirJ1pZWxmJxM
p4233
sV_source
p4234
(dp4235
Vstatus
p4236
VSuccess
p4237
sVmatchPart
p4238
Vteleop
p4239
sVgameId
p4240
I267
sVteamNumber
p4241
I1011
sVtimeTook
p4242
I3
sVcompetition
p4243
Vhouston
p4244
sVlocation
p4245
VFloor
p4246
sVstartTime
p4247
I95
sVendTime
p4248
I98
sVtype
p4249
VGear
p4250
ssV_index
p4251
Vevents
p4252
sa(dp4253
V_type
p4254
Vgearplace
p4255
sV_id
p4256
VAVuSEBK-irJ1pZWxmJwr
p4257
sV_source
p4258
(dp4259
Vstatus
p4260
VSuccess
p4261
sVmatchPart
p4262
Vautonomous
p4263
sVgameId
p4264
I264
sVteamNumber
p4265
I6304
sVtimeTook
p4266
I13
sVcompetition
p4267
Vhouston
p4268
sVlocation
p4269
VCenter
p4270
sVstartTime
p4271
I5
sVendTime
p4272
I18
ssV_index
p4273
Vevents
p4274
sa(dp4275
V_type
p4276
Vgearplace
p4277
sV_id
p4278
VAVuSD43LirJ1pZWxmJwk
p4279
sV_source
p4280
(dp4281
Vstatus
p4282
VSuccess
p4283
sVmatchPart
p4284
Vteleop
p4285
sVgameId
p4286
I268
sVteamNumber
p4287
I6560
sVtimeTook
p4288
I8
sVcompetition
p4289
Vhouston
p4290
sVlocation
p4291
VCenter
p4292
sVstartTime
p4293
I70
sVendTime
p4294
I78
ssV_index
p4295
Vevents
p4296
sa(dp4297
V_type
p4298
Vgearplace
p4299
sV_id
p4300
VAVuSCpxUirJ1pZWxmJwH
p4301
sV_source
p4302
(dp4303
Vstatus
p4304
VSuccess
p4305
sVmatchPart
p4306
Vteleop
p4307
sVgameId
p4308
I267
sVteamNumber
p4309
I6705
sVtimeTook
p4310
I4
sVcompetition
p4311
Vhouston
p4312
sVlocation
p4313
VRight
p4314
sVstartTime
p4315
I115
sVendTime
p4316
I119
ssV_index
p4317
Vevents
p4318
sa(dp4319
V_type
p4320
Vgearplace
p4321
sV_id
p4322
VAVuSE0jsirJ1pZWxmJxK
p4323
sV_source
p4324
(dp4325
Vstatus
p4326
VSuccess
p4327
sVmatchPart
p4328
Vteleop
p4329
sVgameId
p4330
I267
sVteamNumber
p4331
I1011
sVtimeTook
p4332
I3
sVcompetition
p4333
Vhouston
p4334
sVlocation
p4335
VRight
p4336
sVstartTime
p4337
I84
sVendTime
p4338
I87
ssV_index
p4339
Vevents
p4340
sa(dp4341
V_type
p4342
Vgearplace
p4343
sV_id
p4344
VAVuSFIWXirJ1pZWxmJxT
p4345
sV_source
p4346
(dp4347
Vstatus
p4348
VSuccess
p4349
sVmatchPart
p4350
Vteleop
p4351
sVgameId
p4352
I269
sVteamNumber
p4353
I2881
sVtimeTook
p4354
I6
sVcompetition
p4355
Vhouston
p4356
sVlocation
p4357
VLeft
p4358
sVstartTime
p4359
I52
sVendTime
p4360
I58
ssV_index
p4361
Vevents
p4362
sa(dp4363
V_type
p4364
Vpickup
p4365
sV_id
p4366
VAVuSFmezirJ1pZWxmJxj
p4367
sV_source
p4368
(dp4369
Vstatus
p4370
VSuccess
p4371
sVmatchPart
p4372
Vautonomous
p4373
sVgameId
p4374
I268
sVteamNumber
p4375
I4590
sVtimeTook
p4376
I3
sVcompetition
p4377
Vhouston
p4378
sVlocation
p4379
VHopper
p4380
sVstartTime
p4381
I3
sVendTime
p4382
I6
sVtype
p4383
VBall
p4384
ssV_index
p4385
Vevents
p4386
sa(dp4387
V_type
p4388
Vgearplace
p4389
sV_id
p4390
VAVuSFlq3irJ1pZWxmJxh
p4391
sV_source
p4392
(dp4393
Vstatus
p4394
VSuccess
p4395
sVmatchPart
p4396
Vteleop
p4397
sVgameId
p4398
I269
sVteamNumber
p4399
I441
sVtimeTook
p4400
I12
sVcompetition
p4401
Vhouston
p4402
sVlocation
p4403
VCenter
p4404
sVstartTime
p4405
I95
sVendTime
p4406
I107
ssV_index
p4407
Vevents
p4408
sa(dp4409
V_type
p4410
Vgearplace
p4411
sV_id
p4412
VAVuSGlX7irJ1pZWxmJyE
p4413
sV_source
p4414
(dp4415
Vstatus
p4416
VSuccess
p4417
sVmatchPart
p4418
Vteleop
p4419
sVgameId
p4420
I268
sVteamNumber
p4421
I4590
sVtimeTook
p4422
I9
sVcompetition
p4423
Vhouston
p4424
sVlocation
p4425
VRight
p4426
sVstartTime
p4427
I101
sVendTime
p4428
I110
ssV_index
p4429
Vevents
p4430
sa(dp4431
V_type
p4432
VchassisFight
p4433
sV_id
p4434
VAVuSFedTirJ1pZWxmJxd
p4435
sV_source
p4436
(dp4437
Vstatus
p4438
VFailure
p4439
sVmatchPart
p4440
Vteleop
p4441
sVtimeTook
p4442
I11
sVgameId
p4443
I268
sVteamNumber
p4444
I4219
sVinitiated
p4445
I00
sVcompetition
p4446
Vhouston
p4447
sVfailReason
p4448
NsVfightReason
p4449
NsVstartTime
p4450
I98
sVendTime
p4451
I109
ssV_index
p4452
Vevents
p4453
sa(dp4454
V_type
p4455
Vgearplace
p4456
sV_id
p4457
VAVuSGcnhirJ1pZWxmJx6
p4458
sV_source
p4459
(dp4460
Vstatus
p4461
VSuccess
p4462
sVmatchPart
p4463
Vteleop
p4464
sVgameId
p4465
I272
sVteamNumber
p4466
I5614
sVtimeTook
p4467
I9
sVcompetition
p4468
Vhouston
p4469
sVlocation
p4470
VRight
p4471
sVstartTime
p4472
I16
sVendTime
p4473
I25
ssV_index
p4474
Vevents
p4475
sa(dp4476
V_type
p4477
VchassisFight
p4478
sV_id
p4479
VAVuSFg5OirJ1pZWxmJxf
p4480
sV_source
p4481
(dp4482
Vstatus
p4483
VFailure
p4484
sVmatchPart
p4485
Vteleop
p4486
sVtimeTook
p4487
I3
sVgameId
p4488
I268
sVteamNumber
p4489
I4219
sVinitiated
p4490
I00
sVcompetition
p4491
Vhouston
p4492
sVfailReason
p4493
NsVfightReason
p4494
NsVstartTime
p4495
I111
sVendTime
p4496
I114
ssV_index
p4497
Vevents
p4498
sa(dp4499
V_type
p4500
Vclimb
p4501
sV_id
p4502
VAVuSFT_RirJ1pZWxmJxY
p4503
sV_source
p4504
(dp4505
Vstatus
p4506
VSuccess
p4507
sVmatchPart
p4508
Vteleop
p4509
sVgameId
p4510
I267
sVteamNumber
p4511
I1011
sVtimeTook
p4512
I5
sVcompetition
p4513
Vhouston
p4514
sVstartTime
p4515
I139
sVendTime
p4516
I144
ssV_index
p4517
Vevents
p4518
sa(dp4519
V_type
p4520
Vcomment
p4521
sV_id
p4522
VAVuSFQG1irJ1pZWxmJxW
p4523
sV_source
p4524
(dp4525
Vcontent
p4526
V\u05d4\u05d2\u05d9\u05e8 \u05e0\u05e4\u05dc, \u05d4\u05e6\u05dc\u05d9\u05d7\u05d5 \u05dc\u05ea\u05e7\u05df \u05d5\u05dc\u05e9\u05d9\u05dd
p4527
sVtimeTook
p4528
NsVgameId
p4529
I269
sVcompetition
p4530
Vhouston
p4531
sVteamNumber
p4532
I441
ssV_index
p4533
Vevents
p4534
sa(dp4535
V_type
p4536
Vcomment
p4537
sV_id
p4538
VAVuSGS0RirJ1pZWxmJxy
p4539
sV_source
p4540
(dp4541
Vcontent
p4542
V\u05d2\u05d9\u05e8 \u05e0\u05e4\u05dc \u05db\u05d9 \u05d4\u05e8\u05d5\u05d1\u05d5\u05d8 \u05d0\u05e4\u05e1
p4543
sVtimeTook
p4544
NsVgameId
p4545
I269
sVcompetition
p4546
Vhouston
p4547
sVteamNumber
p4548
I2881
ssV_index
p4549
Vevents
p4550
sa(dp4551
V_type
p4552
Vpickup
p4553
sV_id
p4554
VAVuSIIWOirJ1pZWxmJyo
p4555
sV_source
p4556
(dp4557
Vstatus
p4558
VSuccess
p4559
sVmatchPart
p4560
Vteleop
p4561
sVgameId
p4562
I269
sVteamNumber
p4563
I3140
sVtimeTook
p4564
I2
sVcompetition
p4565
Vhouston
p4566
sVlocation
p4567
VFeeder
p4568
sVstartTime
p4569
I27
sVendTime
p4570
I29
sVtype
p4571
VGear
p4572
ssV_index
p4573
Vevents
p4574
sa(dp4575
V_type
p4576
Vpickup
p4577
sV_id
p4578
VAVuSICejirJ1pZWxmJyl
p4579
sV_source
p4580
(dp4581
Vstatus
p4582
VSuccess
p4583
sVmatchPart
p4584
Vteleop
p4585
sVgameId
p4586
I268
sVteamNumber
p4587
I8
sVtimeTook
p4588
I9
sVcompetition
p4589
Vhouston
p4590
sVlocation
p4591
VFeeder
p4592
sVstartTime
p4593
I100
sVendTime
p4594
I109
sVtype
p4595
VGear
p4596
ssV_index
p4597
Vevents
p4598
sa(dp4599
V_type
p4600
Vclimb
p4601
sV_id
p4602
VAVuSGu4_irJ1pZWxmJyI
p4603
sV_source
p4604
(dp4605
Vstatus
p4606
VFailure
p4607
sVmatchPart
p4608
Vteleop
p4609
sVgameId
p4610
I269
sVteamNumber
p4611
I2881
sVtimeTook
p4612
I24
sVcompetition
p4613
Vhouston
p4614
sVfailReason
p4615
VFailed because of interruption
p4616
sVstartTime
p4617
I132
sVendTime
p4618
I156
ssV_index
p4619
Vevents
p4620
sa(dp4621
V_type
p4622
Vgearplace
p4623
sV_id
p4624
VAVuSH8qFirJ1pZWxmJyi
p4625
sV_source
p4626
(dp4627
Vstatus
p4628
VSuccess
p4629
sVmatchPart
p4630
Vteleop
p4631
sVgameId
p4632
I269
sVteamNumber
p4633
I2183
sVtimeTook
p4634
I5
sVcompetition
p4635
Vhouston
p4636
sVlocation
p4637
VCenter
p4638
sVstartTime
p4639
I96
sVendTime
p4640
I101
ssV_index
p4641
Vevents
p4642
sa(dp4643
V_type
p4644
Vgearplace
p4645
sV_id
p4646
VAVuSILnBirJ1pZWxmJyq
p4647
sV_source
p4648
(dp4649
Vstatus
p4650
VSuccess
p4651
sVmatchPart
p4652
Vteleop
p4653
sVgameId
p4654
I269
sVteamNumber
p4655
I3140
sVtimeTook
p4656
I5
sVcompetition
p4657
Vhouston
p4658
sVlocation
p4659
VCenter
p4660
sVstartTime
p4661
I36
sVendTime
p4662
I41
ssV_index
p4663
Vevents
p4664
sa(dp4665
V_type
p4666
Vgearplace
p4667
sV_id
p4668
VAVuSHjkwirJ1pZWxmJyY
p4669
sV_source
p4670
(dp4671
Vstatus
p4672
VSuccess
p4673
sVmatchPart
p4674
Vteleop
p4675
sVgameId
p4676
I268
sVteamNumber
p4677
I8
sVtimeTook
p4678
I4
sVcompetition
p4679
Vhouston
p4680
sVlocation
p4681
VRight
p4682
sVstartTime
p4683
I39
sVendTime
p4684
I43
ssV_index
p4685
Vevents
p4686
sa(dp4687
V_type
p4688
Vgearplace
p4689
sV_id
p4690
VAVuSIFuPirJ1pZWxmJyn
p4691
sV_source
p4692
(dp4693
Vstatus
p4694
VSuccess
p4695
sVmatchPart
p4696
Vteleop
p4697
sVgameId
p4698
I268
sVteamNumber
p4699
I8
sVtimeTook
p4700
I8
sVcompetition
p4701
Vhouston
p4702
sVlocation
p4703
VRight
p4704
sVstartTime
p4705
I111
sVendTime
p4706
I119
ssV_index
p4707
Vevents
p4708
sa(dp4709
V_type
p4710
Vclimb
p4711
sV_id
p4712
VAVuSGy6IirJ1pZWxmJyM
p4713
sV_source
p4714
(dp4715
Vstatus
p4716
VSuccess
p4717
sVmatchPart
p4718
Vteleop
p4719
sVgameId
p4720
I268
sVteamNumber
p4721
I4590
sVtimeTook
p4722
I7
sVcompetition
p4723
Vhouston
p4724
sVstartTime
p4725
I142
sVendTime
p4726
I149
ssV_index
p4727
Vevents
p4728
sa(dp4729
V_type
p4730
Vgearplace
p4731
sV_id
p4732
VAVuSIhCqirJ1pZWxmJy1
p4733
sV_source
p4734
(dp4735
Vstatus
p4736
VFailure
p4737
sVmatchPart
p4738
Vautonomous
p4739
sVgameId
p4740
I272
sVteamNumber
p4741
I6304
sVtimeTook
p4742
I11
sVcompetition
p4743
Vhouston
p4744
sVfailReason
p4745
VFailed because of mechanical failure / gear fell
p4746
sVlocation
p4747
VLeft
p4748
sVstartTime
p4749
I3
sVendTime
p4750
I14
ssV_index
p4751
Vevents
p4752
sa(dp4753
V_type
p4754
Vgearplace
p4755
sV_id
p4756
VAVuSKbJ-irJ1pZWxmJzm
p4757
sV_source
p4758
(dp4759
Vstatus
p4760
VFailure
p4761
sVmatchPart
p4762
Vteleop
p4763
sVgameId
p4764
I273
sVteamNumber
p4765
I5499
sVtimeTook
p4766
I2
sVcompetition
p4767
Vhouston
p4768
sVfailReason
p4769
VFailed because of mechanical failure / gear fell
p4770
sVlocation
p4771
VLeft
p4772
sVstartTime
p4773
I106
sVendTime
p4774
I108
ssV_index
p4775
Vevents
p4776
sa(dp4777
V_type
p4778
Vpickup
p4779
sV_id
p4780
VAVuSIy79irJ1pZWxmJzA
p4781
sV_source
p4782
(dp4783
Vstatus
p4784
VSuccess
p4785
sVmatchPart
p4786
Vteleop
p4787
sVgameId
p4788
I269
sVteamNumber
p4789
I2655
sVtimeTook
p4790
I6
sVcompetition
p4791
Vhouston
p4792
sVlocation
p4793
VFeeder
p4794
sVstartTime
p4795
I85
sVendTime
p4796
I91
sVtype
p4797
VGear
p4798
ssV_index
p4799
Vevents
p4800
sa(dp4801
V_type
p4802
Vpickup
p4803
sV_id
p4804
VAVuSKbx0irJ1pZWxmJzn
p4805
sV_source
p4806
(dp4807
Vstatus
p4808
VSuccess
p4809
sVmatchPart
p4810
Vteleop
p4811
sVgameId
p4812
I273
sVteamNumber
p4813
I5499
sVtimeTook
p4814
I1
sVcompetition
p4815
Vhouston
p4816
sVlocation
p4817
VFloor
p4818
sVstartTime
p4819
I109
sVendTime
p4820
I110
sVtype
p4821
VGear
p4822
ssV_index
p4823
Vevents
p4824
sa(dp4825
V_type
p4826
Vgearplace
p4827
sV_id
p4828
VAVuSJdp0irJ1pZWxmJzK
p4829
sV_source
p4830
(dp4831
Vstatus
p4832
VSuccess
p4833
sVmatchPart
p4834
Vautonomous
p4835
sVgameId
p4836
I271
sVteamNumber
p4837
I6325
sVtimeTook
p4838
I1
sVcompetition
p4839
Vhouston
p4840
sVlocation
p4841
VCenter
p4842
sVstartTime
p4843
I2
sVendTime
p4844
I3
ssV_index
p4845
Vevents
p4846
sa(dp4847
V_type
p4848
Vgearplace
p4849
sV_id
p4850
VAVuSKBznirJ1pZWxmJzV
p4851
sV_source
p4852
(dp4853
Vstatus
p4854
VSuccess
p4855
sVmatchPart
p4856
Vteleop
p4857
sVgameId
p4858
I271
sVteamNumber
p4859
I5803
sVtimeTook
p4860
I3
sVcompetition
p4861
Vhouston
p4862
sVlocation
p4863
VRight
p4864
sVstartTime
p4865
I98
sVendTime
p4866
I101
ssV_index
p4867
Vevents
p4868
sa(dp4869
V_type
p4870
Vgearplace
p4871
sV_id
p4872
VAVuSKEVYirJ1pZWxmJzX
p4873
sV_source
p4874
(dp4875
Vstatus
p4876
VSuccess
p4877
sVmatchPart
p4878
Vteleop
p4879
sVgameId
p4880
I271
sVteamNumber
p4881
I6325
sVtimeTook
p4882
I2
sVcompetition
p4883
Vhouston
p4884
sVlocation
p4885
VLeft
p4886
sVstartTime
p4887
I119
sVendTime
p4888
I121
ssV_index
p4889
Vevents
p4890
sa(dp4891
V_type
p4892
Vgearplace
p4893
sV_id
p4894
VAVuSIs-DirJ1pZWxmJy7
p4895
sV_source
p4896
(dp4897
Vstatus
p4898
VSuccess
p4899
sVmatchPart
p4900
Vteleop
p4901
sVgameId
p4902
I269
sVteamNumber
p4903
I2183
sVtimeTook
p4904
I3
sVcompetition
p4905
Vhouston
p4906
sVlocation
p4907
VLeft
p4908
sVstartTime
p4909
I130
sVendTime
p4910
I133
ssV_index
p4911
Vevents
p4912
sa(dp4913
V_type
p4914
Vclimb
p4915
sV_id
p4916
VAVuSIxQLirJ1pZWxmJy_
p4917
sV_source
p4918
(dp4919
Vstatus
p4920
VSuccess
p4921
sVmatchPart
p4922
Vteleop
p4923
sVgameId
p4924
I269
sVteamNumber
p4925
I2183
sVtimeTook
p4926
I13
sVcompetition
p4927
Vhouston
p4928
sVstartTime
p4929
I136
sVendTime
p4930
I149
ssV_index
p4931
Vevents
p4932
sa(dp4933
V_type
p4934
Vpickup
p4935
sV_id
p4936
VAVuSK0ucirJ1pZWxmJzs
p4937
sV_source
p4938
(dp4939
Vstatus
p4940
VSuccess
p4941
sVmatchPart
p4942
Vteleop
p4943
sVgameId
p4944
I273
sVteamNumber
p4945
I5499
sVtimeTook
p4946
I2
sVcompetition
p4947
Vhouston
p4948
sVlocation
p4949
VFloor
p4950
sVstartTime
p4951
I138
sVendTime
p4952
I140
sVtype
p4953
VGear
p4954
ssV_index
p4955
Vevents
p4956
sa(dp4957
V_type
p4958
Vpickup
p4959
sV_id
p4960
VAVuSLWkZirJ1pZWxmJz9
p4961
sV_source
p4962
(dp4963
Vstatus
p4964
VSuccess
p4965
sVmatchPart
p4966
Vteleop
p4967
sVgameId
p4968
I272
sVteamNumber
p4969
I115
sVtimeTook
p4970
I2
sVcompetition
p4971
Vhouston
p4972
sVlocation
p4973
VFeeder
p4974
sVstartTime
p4975
I91
sVendTime
p4976
I93
sVtype
p4977
VGear
p4978
ssV_index
p4979
Vevents
p4980
sa(dp4981
V_type
p4982
Vpickup
p4983
sV_id
p4984
VAVuSLQ4xirJ1pZWxmJz5
p4985
sV_source
p4986
(dp4987
Vstatus
p4988
VSuccess
p4989
sVmatchPart
p4990
Vteleop
p4991
sVgameId
p4992
I272
sVteamNumber
p4993
I115
sVtimeTook
p4994
I1
sVcompetition
p4995
Vhouston
p4996
sVlocation
p4997
VFeeder
p4998
sVstartTime
p4999
I72
sVendTime
p5000
I73
sVtype
p5001
VGear
p5002
ssV_index
p5003
Vevents
p5004
sa(dp5005
V_type
p5006
Vpickup
p5007
sV_id
p5008
VAVuSKeXAirJ1pZWxmJzp
p5009
sV_source
p5010
(dp5011
Vstatus
p5012
VSuccess
p5013
sVmatchPart
p5014
Vteleop
p5015
sVgameId
p5016
I273
sVteamNumber
p5017
I5499
sVtimeTook
p5018
I1
sVcompetition
p5019
Vhouston
p5020
sVlocation
p5021
VFloor
p5022
sVstartTime
p5023
I118
sVendTime
p5024
I119
sVtype
p5025
VGear
p5026
ssV_index
p5027
Vevents
p5028
sa(dp5029
V_type
p5030
Vgearplace
p5031
sV_id
p5032
VAVuSKwa0irJ1pZWxmJzr
p5033
sV_source
p5034
(dp5035
Vstatus
p5036
VSuccess
p5037
sVmatchPart
p5038
Vautonomous
p5039
sVgameId
p5040
I272
sVteamNumber
p5041
I115
sVtimeTook
p5042
I2
sVcompetition
p5043
Vhouston
p5044
sVlocation
p5045
VCenter
p5046
sVstartTime
p5047
I2
sVendTime
p5048
I4
ssV_index
p5049
Vevents
p5050
sa(dp5051
V_type
p5052
Vgearplace
p5053
sV_id
p5054
VAVuSLHseirJ1pZWxmJz1
p5055
sV_source
p5056
(dp5057
Vstatus
p5058
VSuccess
p5059
sVmatchPart
p5060
Vteleop
p5061
sVgameId
p5062
I272
sVteamNumber
p5063
I115
sVtimeTook
p5064
I4
sVcompetition
p5065
Vhouston
p5066
sVlocation
p5067
VCenter
p5068
sVstartTime
p5069
I38
sVendTime
p5070
I42
ssV_index
p5071
Vevents
p5072
sa(dp5073
V_type
p5074
Vgearplace
p5075
sV_id
p5076
VAVuSLB23irJ1pZWxmJzw
p5077
sV_source
p5078
(dp5079
Vstatus
p5080
VSuccess
p5081
sVmatchPart
p5082
Vteleop
p5083
sVgameId
p5084
I273
sVteamNumber
p5085
I5499
sVtimeTook
p5086
I2
sVcompetition
p5087
Vhouston
p5088
sVlocation
p5089
VLeft
p5090
sVstartTime
p5091
I181
sVendTime
p5092
I183
ssV_index
p5093
Vevents
p5094
sa(dp5095
V_type
p5096
Vgearplace
p5097
sV_id
p5098
VAVuSKcZQirJ1pZWxmJzo
p5099
sV_source
p5100
(dp5101
Vstatus
p5102
VSuccess
p5103
sVmatchPart
p5104
Vteleop
p5105
sVgameId
p5106
I273
sVteamNumber
p5107
I5499
sVtimeTook
p5108
I1
sVcompetition
p5109
Vhouston
p5110
sVlocation
p5111
VLeft
p5112
sVstartTime
p5113
I111
sVendTime
p5114
I112
ssV_index
p5115
Vevents
p5116
sa(dp5117
V_type
p5118
Vstuck
p5119
sV_id
p5120
VAVuSMPUbirJ1pZWxmJ0V
p5121
sV_source
p5122
(dp5123
VmatchPart
p5124
Vteleop
p5125
sVgameId
p5126
I273
sVteamNumber
p5127
I2485
sVtimeTook
p5128
I20
sVcompetition
p5129
Vhouston
p5130
sVreason
p5131
Velectrical
p5132
sVstartTime
p5133
I52
sVendTime
p5134
I72
sVrecovered
p5135
I01
ssV_index
p5136
Vevents
p5137
sa(dp5138
V_type
p5139
Vpickup
p5140
sV_id
p5141
VAVuSObGbirJ1pZWxmJ1M
p5142
sV_source
p5143
(dp5144
Vstatus
p5145
VSuccess
p5146
sVmatchPart
p5147
Vteleop
p5148
sVgameId
p5149
I276
sVteamNumber
p5150
I4060
sVtimeTook
p5151
I3
sVcompetition
p5152
Vhouston
p5153
sVlocation
p5154
VFeeder
p5155
sVstartTime
p5156
I124
sVendTime
p5157
I127
sVtype
p5158
VGear
p5159
ssV_index
p5160
Vevents
p5161
sa(dp5162
V_type
p5163
Vpickup
p5164
sV_id
p5165
VAVuSOuxCirJ1pZWxmJ1T
p5166
sV_source
p5167
(dp5168
Vstatus
p5169
VSuccess
p5170
sVmatchPart
p5171
Vteleop
p5172
sVgameId
p5173
I272
sVteamNumber
p5174
I175
sVtimeTook
p5175
I22
sVcompetition
p5176
Vhouston
p5177
sVlocation
p5178
VFeeder
p5179
sVstartTime
p5180
I34
sVendTime
p5181
I56
sVtype
p5182
VGear
p5183
ssV_index
p5184
Vevents
p5185
sa(dp5186
V_type
p5187
Vpickup
p5188
sV_id
p5189
VAVuSOEDQirJ1pZWxmJ1C
p5190
sV_source
p5191
(dp5192
Vstatus
p5193
VSuccess
p5194
sVmatchPart
p5195
Vteleop
p5196
sVgameId
p5197
I268
sVteamNumber
p5198
I3991
sVtimeTook
p5199
I10
sVcompetition
p5200
Vhouston
p5201
sVlocation
p5202
VFloor
p5203
sVstartTime
p5204
I83
sVendTime
p5205
I93
sVtype
p5206
VGear
p5207
ssV_index
p5208
Vevents
p5209
sa(dp5210
V_type
p5211
Vgearplace
p5212
sV_id
p5213
VAVuSNMgbirJ1pZWxmJ0o
p5214
sV_source
p5215
(dp5216
Vstatus
p5217
VSuccess
p5218
sVmatchPart
p5219
Vteleop
p5220
sVgameId
p5221
I271
sVteamNumber
p5222
I3158
sVtimeTook
p5223
I11
sVcompetition
p5224
Vhouston
p5225
sVlocation
p5226
VCenter
p5227
sVstartTime
p5228
I77
sVendTime
p5229
I88
ssV_index
p5230
Vevents
p5231
sa(dp5232
V_type
p5233
Vgearplace
p5234
sV_id
p5235
VAVuSNvgDirJ1pZWxmJ0-
p5236
sV_source
p5237
(dp5238
Vstatus
p5239
VSuccess
p5240
sVmatchPart
p5241
Vteleop
p5242
sVgameId
p5243
I268
sVteamNumber
p5244
I3991
sVtimeTook
p5245
I3
sVcompetition
p5246
Vhouston
p5247
sVlocation
p5248
VRight
p5249
sVstartTime
p5250
I71
sVendTime
p5251
I74
ssV_index
p5252
Vevents
p5253
sa(dp5254
V_type
p5255
VchassisFight
p5256
sV_id
p5257
VAVuSNIDNirJ1pZWxmJ0m
p5258
sV_source
p5259
(dp5260
Vstatus
p5261
VSuccess
p5262
sVmatchPart
p5263
Vteleop
p5264
sVtimeTook
p5265
I4
sVgameId
p5266
I275
sVteamNumber
p5267
I6361
sVinitiated
p5268
I00
sVcompetition
p5269
Vhouston
p5270
sVfailReason
p5271
NsVfightReason
p5272
NsVstartTime
p5273
I149
sVendTime
p5274
I153
ssV_index
p5275
Vevents
p5276
sa(dp5277
V_type
p5278
Vgearplace
p5279
sV_id
p5280
VAVuSNpUFirJ1pZWxmJ03
p5281
sV_source
p5282
(dp5283
Vstatus
p5284
VSuccess
p5285
sVmatchPart
p5286
Vteleop
p5287
sVgameId
p5288
I268
sVteamNumber
p5289
I3991
sVtimeTook
p5290
I2
sVcompetition
p5291
Vhouston
p5292
sVlocation
p5293
VRight
p5294
sVstartTime
p5295
I50
sVendTime
p5296
I52
ssV_index
p5297
Vevents
p5298
sa(dp5299
V_type
p5300
Vgearplace
p5301
sV_id
p5302
VAVuSNYCyirJ1pZWxmJ0s
p5303
sV_source
p5304
(dp5305
Vstatus
p5306
VSuccess
p5307
sVmatchPart
p5308
Vteleop
p5309
sVgameId
p5310
I276
sVteamNumber
p5311
I4060
sVtimeTook
p5312
I4
sVcompetition
p5313
Vhouston
p5314
sVlocation
p5315
VLeft
p5316
sVstartTime
p5317
I39
sVendTime
p5318
I43
ssV_index
p5319
Vevents
p5320
sa(dp5321
V_type
p5322
Vclimb
p5323
sV_id
p5324
VAVuSOSScirJ1pZWxmJ1J
p5325
sV_source
p5326
(dp5327
Vstatus
p5328
VSuccess
p5329
sVmatchPart
p5330
Vteleop
p5331
sVgameId
p5332
I274
sVteamNumber
p5333
I1414
sVtimeTook
p5334
I8
sVcompetition
p5335
Vhouston
p5336
sVstartTime
p5337
I125
sVendTime
p5338
I133
ssV_index
p5339
Vevents
p5340
sa(dp5341
V_type
p5342
Vpickup
p5343
sV_id
p5344
VAVuSP3MyirJ1pZWxmJ1-
p5345
sV_source
p5346
(dp5347
Vstatus
p5348
VFailure
p5349
sVmatchPart
p5350
Vteleop
p5351
sVgameId
p5352
I273
sVteamNumber
p5353
I365
sVtimeTook
p5354
I7
sVcompetition
p5355
Vhouston
p5356
sVfailReason
p5357
VFailed because of mechanical failure
p5358
sVlocation
p5359
VFeeder
p5360
sVstartTime
p5361
I135
sVendTime
p5362
I142
sVtype
p5363
VGear
p5364
ssV_index
p5365
Vevents
p5366
sa(dp5367
V_type
p5368
Vshooting
p5369
sV_id
p5370
VAVuSQJExirJ1pZWxmJ2D
p5371
sV_source
p5372
(dp5373
Vstatus
p5374
VSuccess
p5375
sVmatchPart
p5376
Vautonomous
p5377
sVgameId
p5378
I275
sVteamNumber
p5379
I4561
sVtimeTook
p5380
I5
sVcompetition
p5381
Vhouston
p5382
sVlocation
p5383
VHigh
p5384
sVstartTime
p5385
I6
sVendTime
p5386
I11
ssV_index
p5387
Vevents
p5388
sa(dp5389
V_type
p5390
Vshooting
p5391
sV_id
p5392
VAVuSPGDFirJ1pZWxmJ1f
p5393
sV_source
p5394
(dp5395
Vstatus
p5396
VSuccess
p5397
sVmatchPart
p5398
Vautonomous
p5399
sVgameId
p5400
I273
sVteamNumber
p5401
I365
sVtimeTook
p5402
I7
sVcompetition
p5403
Vhouston
p5404
sVlocation
p5405
VHigh
p5406
sVstartTime
p5407
I10
sVendTime
p5408
I17
ssV_index
p5409
Vevents
p5410
sa(dp5411
V_type
p5412
Vgearplace
p5413
sV_id
p5414
VAVuSQKfvirJ1pZWxmJ2E
p5415
sV_source
p5416
(dp5417
Vstatus
p5418
VSuccess
p5419
sVmatchPart
p5420
Vteleop
p5421
sVgameId
p5422
I269
sVteamNumber
p5423
I5026
sVtimeTook
p5424
I10
sVcompetition
p5425
Vhouston
p5426
sVlocation
p5427
VRight
p5428
sVstartTime
p5429
I100
sVendTime
p5430
I110
ssV_index
p5431
Vevents
p5432
sa(dp5433
V_type
p5434
Vgearplace
p5435
sV_id
p5436
VAVuSPTqOirJ1pZWxmJ1r
p5437
sV_source
p5438
(dp5439
Vstatus
p5440
VSuccess
p5441
sVmatchPart
p5442
Vteleop
p5443
sVgameId
p5444
I273
sVteamNumber
p5445
I365
sVtimeTook
p5446
I2
sVcompetition
p5447
Vhouston
p5448
sVlocation
p5449
VCenter
p5450
sVstartTime
p5451
I56
sVendTime
p5452
I58
ssV_index
p5453
Vevents
p5454
sa(dp5455
V_type
p5456
Vgearplace
p5457
sV_id
p5458
VAVuSPtyZirJ1pZWxmJ16
p5459
sV_source
p5460
(dp5461
Vstatus
p5462
VSuccess
p5463
sVmatchPart
p5464
Vteleop
p5465
sVgameId
p5466
I269
sVteamNumber
p5467
I5026
sVtimeTook
p5468
I8
sVcompetition
p5469
Vhouston
p5470
sVlocation
p5471
VRight
p5472
sVstartTime
p5473
I75
sVendTime
p5474
I83
ssV_index
p5475
Vevents
p5476
sa(dp5477
V_type
p5478
Vgearplace
p5479
sV_id
p5480
VAVuSPNn2irJ1pZWxmJ1n
p5481
sV_source
p5482
(dp5483
Vstatus
p5484
VSuccess
p5485
sVmatchPart
p5486
Vteleop
p5487
sVgameId
p5488
I269
sVteamNumber
p5489
I5026
sVtimeTook
p5490
I4
sVcompetition
p5491
Vhouston
p5492
sVlocation
p5493
VRight
p5494
sVstartTime
p5495
I18
sVendTime
p5496
I22
ssV_index
p5497
Vevents
p5498
sa(dp5499
V_type
p5500
Vshooting
p5501
sV_id
p5502
VAVuSPCxSirJ1pZWxmJ1c
p5503
sV_source
p5504
(dp5505
Vstatus
p5506
VSuccess
p5507
sVmatchPart
p5508
Vteleop
p5509
sVgameId
p5510
I272
sVteamNumber
p5511
I175
sVtimeTook
p5512
I7
sVcompetition
p5513
Vhouston
p5514
sVlocation
p5515
VHigh
p5516
sVstartTime
p5517
I127
sVendTime
p5518
I134
ssV_index
p5519
Vevents
p5520
sa(dp5521
V_type
p5522
Vcomment
p5523
sV_id
p5524
VAVuSQVfSirJ1pZWxmJ2F
p5525
sV_source
p5526
(dp5527
Vcontent
p5528
Vshot 10, scored 5, missed 5
p5529
sVtimeTook
p5530
NsVgameId
p5531
I275
sVcompetition
p5532
Vhouston
p5533
sVteamNumber
p5534
I4561
ssV_index
p5535
Vevents
p5536
sa(dp5537
V_type
p5538
Vpickup
p5539
sV_id
p5540
VAVuSQ6s6irJ1pZWxmJ2a
p5541
sV_source
p5542
(dp5543
Vstatus
p5544
VSuccess
p5545
sVmatchPart
p5546
Vteleop
p5547
sVgameId
p5548
I273
sVteamNumber
p5549
I1002
sVtimeTook
p5550
I2
sVcompetition
p5551
Vhouston
p5552
sVlocation
p5553
VFeeder
p5554
sVstartTime
p5555
I23
sVendTime
p5556
I25
sVtype
p5557
VGear
p5558
ssV_index
p5559
Vevents
p5560
sa(dp5561
V_type
p5562
Vpickup
p5563
sV_id
p5564
VAVuSRZ0_irJ1pZWxmJ21
p5565
sV_source
p5566
(dp5567
Vstatus
p5568
VSuccess
p5569
sVmatchPart
p5570
Vteleop
p5571
sVgameId
p5572
I275
sVteamNumber
p5573
I4561
sVtimeTook
p5574
I5
sVcompetition
p5575
Vhouston
p5576
sVlocation
p5577
VFeeder
p5578
sVstartTime
p5579
I88
sVendTime
p5580
I93
sVtype
p5581
VGear
p5582
ssV_index
p5583
Vevents
p5584
sa(dp5585
V_type
p5586
Vpickup
p5587
sV_id
p5588
VAVuSSPAqirJ1pZWxmJ3l
p5589
sV_source
p5590
(dp5591
Vstatus
p5592
VSuccess
p5593
sVmatchPart
p5594
Vteleop
p5595
sVgameId
p5596
I276
sVteamNumber
p5597
I624
sVtimeTook
p5598
I2
sVcompetition
p5599
Vhouston
p5600
sVlocation
p5601
VFeeder
p5602
sVstartTime
p5603
I38
sVendTime
p5604
I40
sVtype
p5605
VGear
p5606
ssV_index
p5607
Vevents
p5608
sa(dp5609
V_type
p5610
Vpickup
p5611
sV_id
p5612
VAVuSRJgzirJ1pZWxmJ2n
p5613
sV_source
p5614
(dp5615
Vstatus
p5616
VSuccess
p5617
sVmatchPart
p5618
Vteleop
p5619
sVgameId
p5620
I273
sVteamNumber
p5621
I1002
sVtimeTook
p5622
I4
sVcompetition
p5623
Vhouston
p5624
sVlocation
p5625
VFloor
p5626
sVstartTime
p5627
I57
sVendTime
p5628
I61
sVtype
p5629
VGear
p5630
ssV_index
p5631
Vevents
p5632
sa(dp5633
V_type
p5634
Vpickup
p5635
sV_id
p5636
VAVuSRc75irJ1pZWxmJ25
p5637
sV_source
p5638
(dp5639
Vstatus
p5640
VSuccess
p5641
sVmatchPart
p5642
Vteleop
p5643
sVgameId
p5644
I275
sVteamNumber
p5645
I973
sVtimeTook
p5646
I1
sVcompetition
p5647
Vhouston
p5648
sVlocation
p5649
VFloor
p5650
sVstartTime
p5651
I81
sVendTime
p5652
I82
sVtype
p5653
VGear
p5654
ssV_index
p5655
Vevents
p5656
sa(dp5657
V_type
p5658
Vgearplace
p5659
sV_id
p5660
VAVuSRwLWirJ1pZWxmJ3N
p5661
sV_source
p5662
(dp5663
Vstatus
p5664
VSuccess
p5665
sVmatchPart
p5666
Vautonomous
p5667
sVgameId
p5668
I275
sVteamNumber
p5669
I3402
sVtimeTook
p5670
I7
sVcompetition
p5671
Vhouston
p5672
sVlocation
p5673
VCenter
p5674
sVstartTime
p5675
I2
sVendTime
p5676
I9
ssV_index
p5677
Vevents
p5678
sa(dp5679
V_type
p5680
Vgearplace
p5681
sV_id
p5682
VAVuSR49PirJ1pZWxmJ3U
p5683
sV_source
p5684
(dp5685
Vstatus
p5686
VSuccess
p5687
sVmatchPart
p5688
Vautonomous
p5689
sVgameId
p5690
I275
sVteamNumber
p5691
I5472
sVtimeTook
p5692
I19
sVcompetition
p5693
Vhouston
p5694
sVlocation
p5695
VLeft
p5696
sVstartTime
p5697
I3
sVendTime
p5698
I22
ssV_index
p5699
Vevents
p5700
sa(dp5701
V_type
p5702
Vgearplace
p5703
sV_id
p5704
VAVuSSGzfirJ1pZWxmJ3e
p5705
sV_source
p5706
(dp5707
Vstatus
p5708
VSuccess
p5709
sVmatchPart
p5710
Vautonomous
p5711
sVgameId
p5712
I276
sVteamNumber
p5713
I624
sVtimeTook
p5714
I7
sVcompetition
p5715
Vhouston
p5716
sVlocation
p5717
VLeft
p5718
sVstartTime
p5719
I2
sVendTime
p5720
I9
ssV_index
p5721
Vevents
p5722
sa(dp5723
V_type
p5724
Vgearplace
p5725
sV_id
p5726
VAVuSRSDJirJ1pZWxmJ2v
p5727
sV_source
p5728
(dp5729
Vstatus
p5730
VSuccess
p5731
sVmatchPart
p5732
Vteleop
p5733
sVgameId
p5734
I273
sVteamNumber
p5735
I1002
sVtimeTook
p5736
I1
sVcompetition
p5737
Vhouston
p5738
sVlocation
p5739
VLeft
p5740
sVstartTime
p5741
I82
sVendTime
p5742
I83
ssV_index
p5743
Vevents
p5744
sa(dp5745
V_type
p5746
Vgearplace
p5747
sV_id
p5748
VAVuSSoi8irJ1pZWxmJ3_
p5749
sV_source
p5750
(dp5751
Vstatus
p5752
VFailure
p5753
sVmatchPart
p5754
Vteleop
p5755
sVgameId
p5756
I266
sVteamNumber
p5757
I1414
sVtimeTook
p5758
I14
sVcompetition
p5759
Vhouston
p5760
sVfailReason
p5761
VFailed because of mechanical failure / gear fell
p5762
sVlocation
p5763
VRight
p5764
sVstartTime
p5765
I76
sVendTime
p5766
I90
ssV_index
p5767
Vevents
p5768
sa(dp5769
V_type
p5770
Vpickup
p5771
sV_id
p5772
VAVuSSaKDirJ1pZWxmJ3x
p5773
sV_source
p5774
(dp5775
Vstatus
p5776
VSuccess
p5777
sVmatchPart
p5778
Vteleop
p5779
sVgameId
p5780
I274
sVteamNumber
p5781
I1339
sVtimeTook
p5782
I11
sVcompetition
p5783
Vhouston
p5784
sVlocation
p5785
VFeeder
p5786
sVstartTime
p5787
I93
sVendTime
p5788
I104
sVtype
p5789
VGear
p5790
ssV_index
p5791
Vevents
p5792
sa(dp5793
V_type
p5794
Vpickup
p5795
sV_id
p5796
VAVuSSor5irJ1pZWxmJ4A
p5797
sV_source
p5798
(dp5799
Vstatus
p5800
VSuccess
p5801
sVmatchPart
p5802
Vteleop
p5803
sVgameId
p5804
I276
sVteamNumber
p5805
I624
sVtimeTook
p5806
I2
sVcompetition
p5807
Vhouston
p5808
sVlocation
p5809
VFeeder
p5810
sVstartTime
p5811
I114
sVendTime
p5812
I116
sVtype
p5813
VGear
p5814
ssV_index
p5815
Vevents
p5816
sa(dp5817
V_type
p5818
Vgearplace
p5819
sV_id
p5820
VAVuSS6EEirJ1pZWxmJ4L
p5821
sV_source
p5822
(dp5823
Vstatus
p5824
VSuccess
p5825
sVmatchPart
p5826
Vteleop
p5827
sVgameId
p5828
I266
sVteamNumber
p5829
I1414
sVtimeTook
p5830
I9
sVcompetition
p5831
Vhouston
p5832
sVlocation
p5833
VCenter
p5834
sVstartTime
p5835
I123
sVendTime
p5836
I132
ssV_index
p5837
Vevents
p5838
sa(dp5839
V_type
p5840
Vgearplace
p5841
sV_id
p5842
VAVuSSuAlirJ1pZWxmJ4E
p5843
sV_source
p5844
(dp5845
Vstatus
p5846
VSuccess
p5847
sVmatchPart
p5848
Vteleop
p5849
sVgameId
p5850
I266
sVteamNumber
p5851
I1414
sVtimeTook
p5852
I2
sVcompetition
p5853
Vhouston
p5854
sVlocation
p5855
VCenter
p5856
sVstartTime
p5857
I96
sVendTime
p5858
I98
ssV_index
p5859
Vevents
p5860
sa(dp5861
V_type
p5862
Vgearplace
p5863
sV_id
p5864
VAVuSSfiMirJ1pZWxmJ34
p5865
sV_source
p5866
(dp5867
Vstatus
p5868
VSuccess
p5869
sVmatchPart
p5870
Vteleop
p5871
sVgameId
p5872
I275
sVteamNumber
p5873
I3402
sVtimeTook
p5874
I1
sVcompetition
p5875
Vhouston
p5876
sVlocation
p5877
VCenter
p5878
sVstartTime
p5879
I93
sVendTime
p5880
I94
ssV_index
p5881
Vevents
p5882
sa(dp5883
V_type
p5884
Vgearplace
p5885
sV_id
p5886
VAVuSST5nirJ1pZWxmJ3q
p5887
sV_source
p5888
(dp5889
Vstatus
p5890
VSuccess
p5891
sVmatchPart
p5892
Vteleop
p5893
sVgameId
p5894
I274
sVteamNumber
p5895
I1339
sVtimeTook
p5896
I6
sVcompetition
p5897
Vhouston
p5898
sVlocation
p5899
VRight
p5900
sVstartTime
p5901
I76
sVendTime
p5902
I82
ssV_index
p5903
Vevents
p5904
sa(dp5905
V_type
p5906
Vgearplace
p5907
sV_id
p5908
VAVuSSVmhirJ1pZWxmJ3t
p5909
sV_source
p5910
(dp5911
Vstatus
p5912
VSuccess
p5913
sVmatchPart
p5914
Vteleop
p5915
sVgameId
p5916
I276
sVteamNumber
p5917
I624
sVtimeTook
p5918
I5
sVcompetition
p5919
Vhouston
p5920
sVlocation
p5921
VLeft
p5922
sVstartTime
p5923
I61
sVendTime
p5924
I66
ssV_index
p5925
Vevents
p5926
sa(dp5927
V_type
p5928
Vgearplace
p5929
sV_id
p5930
VAVuSSRaLirJ1pZWxmJ3m
p5931
sV_source
p5932
(dp5933
Vstatus
p5934
VSuccess
p5935
sVmatchPart
p5936
Vteleop
p5937
sVgameId
p5938
I276
sVteamNumber
p5939
I624
sVtimeTook
p5940
I2
sVcompetition
p5941
Vhouston
p5942
sVlocation
p5943
VLeft
p5944
sVstartTime
p5945
I47
sVendTime
p5946
I49
ssV_index
p5947
Vevents
p5948
sa(dp5949
V_type
p5950
Vpickup
p5951
sV_id
p5952
VAVuSTYH4irJ1pZWxmJ4r
p5953
sV_source
p5954
(dp5955
Vstatus
p5956
VSuccess
p5957
sVmatchPart
p5958
Vteleop
p5959
sVgameId
p5960
I266
sVteamNumber
p5961
I624
sVtimeTook
p5962
I11
sVcompetition
p5963
Vhouston
p5964
sVlocation
p5965
VFeeder
p5966
sVstartTime
p5967
I62
sVendTime
p5968
I73
sVtype
p5969
VGear
p5970
ssV_index
p5971
Vevents
p5972
sa(dp5973
V_type
p5974
Vgearplace
p5975
sV_id
p5976
VAVuSUMEjirJ1pZWxmJ5C
p5977
sV_source
p5978
(dp5979
Vstatus
p5980
VSuccess
p5981
sVmatchPart
p5982
Vautonomous
p5983
sVgameId
p5984
I265
sVteamNumber
p5985
I5515
sVtimeTook
p5986
I2
sVcompetition
p5987
Vhouston
p5988
sVlocation
p5989
VCenter
p5990
sVstartTime
p5991
I2
sVendTime
p5992
I4
ssV_index
p5993
Vevents
p5994
sa(dp5995
V_type
p5996
Vgearplace
p5997
sV_id
p5998
VAVuSTmmMirJ1pZWxmJ46
p5999
sV_source
p6000
(dp6001
Vstatus
p6002
VSuccess
p6003
sVmatchPart
p6004
Vteleop
p6005
sVgameId
p6006
I266
sVteamNumber
p6007
I624
sVtimeTook
p6008
I2
sVcompetition
p6009
Vhouston
p6010
sVlocation
p6011
VRight
p6012
sVstartTime
p6013
I103
sVendTime
p6014
I105
ssV_index
p6015
Vevents
p6016
sa(dp6017
V_type
p6018
Vgearplace
p6019
sV_id
p6020
VAVuSTDbjirJ1pZWxmJ4V
p6021
sV_source
p6022
(dp6023
Vstatus
p6024
VSuccess
p6025
sVmatchPart
p6026
Vteleop
p6027
sVgameId
p6028
I276
sVteamNumber
p6029
I4723
sVtimeTook
p6030
I3
sVcompetition
p6031
Vhouston
p6032
sVlocation
p6033
VRight
p6034
sVstartTime
p6035
I19
sVendTime
p6036
I22
ssV_index
p6037
Vevents
p6038
sa(dp6039
V_type
p6040
Vgearplace
p6041
sV_id
p6042
VAVuSTPuwirJ1pZWxmJ4i
p6043
sV_source
p6044
(dp6045
Vstatus
p6046
VSuccess
p6047
sVmatchPart
p6048
Vteleop
p6049
sVgameId
p6050
I266
sVteamNumber
p6051
I3826
sVtimeTook
p6052
I4
sVcompetition
p6053
Vhouston
p6054
sVlocation
p6055
VLeft
p6056
sVstartTime
p6057
I99
sVendTime
p6058
I103
ssV_index
p6059
Vevents
p6060
sa(dp6061
V_type
p6062
VchassisFight
p6063
sV_id
p6064
VAVuSTYu6irJ1pZWxmJ4s
p6065
sV_source
p6066
(dp6067
Vstatus
p6068
VFailure
p6069
sVmatchPart
p6070
Vteleop
p6071
sVtimeTook
p6072
I3
sVgameId
p6073
I276
sVteamNumber
p6074
I4723
sVinitiated
p6075
I00
sVcompetition
p6076
Vhouston
p6077
sVfailReason
p6078
NsVfightReason
p6079
NsVstartTime
p6080
I75
sVendTime
p6081
I78
ssV_index
p6082
Vevents
p6083
sa(dp6084
V_type
p6085
Vgearplace
p6086
sV_id
p6087
VAVuSUkYPirJ1pZWxmJ5W
p6088
sV_source
p6089
(dp6090
Vstatus
p6091
VSuccess
p6092
sVmatchPart
p6093
Vteleop
p6094
sVgameId
p6095
I265
sVteamNumber
p6096
I5515
sVtimeTook
p6097
I9
sVcompetition
p6098
Vhouston
p6099
sVlocation
p6100
VLeft
p6101
sVstartTime
p6102
I87
sVendTime
p6103
I96
ssV_index
p6104
Vevents
p6105
sa(dp6106
V_type
p6107
Vclimb
p6108
sV_id
p6109
VAVuSS9vfirJ1pZWxmJ4O
p6110
sV_source
p6111
(dp6112
Vstatus
p6113
VSuccess
p6114
sVmatchPart
p6115
Vteleop
p6116
sVgameId
p6117
I266
sVteamNumber
p6118
I1414
sVtimeTook
p6119
I8
sVcompetition
p6120
Vhouston
p6121
sVstartTime
p6122
I140
sVendTime
p6123
I148
ssV_index
p6124
Vevents
p6125
sa(dp6126
V_type
p6127
Vgearplace
p6128
sV_id
p6129
VAVuSUaGuirJ1pZWxmJ5K
p6130
sV_source
p6131
(dp6132
Vstatus
p6133
VSuccess
p6134
sVmatchPart
p6135
Vteleop
p6136
sVgameId
p6137
I265
sVteamNumber
p6138
I2485
sVtimeTook
p6139
I7
sVcompetition
p6140
Vhouston
p6141
sVlocation
p6142
VRight
p6143
sVstartTime
p6144
I110
sVendTime
p6145
I117
ssV_index
p6146
Vevents
p6147
sa(dp6148
V_type
p6149
Vpickup
p6150
sV_id
p6151
VAVuSV--QirJ1pZWxmJ57
p6152
sV_source
p6153
(dp6154
Vstatus
p6155
VFailure
p6156
sVmatchPart
p6157
Vteleop
p6158
sVgameId
p6159
I277
sVteamNumber
p6160
I2928
sVtimeTook
p6161
I3
sVcompetition
p6162
Vhouston
p6163
sVfailReason
p6164
VFailed because of mechanical failure
p6165
sVlocation
p6166
VFeeder
p6167
sVstartTime
p6168
I95
sVendTime
p6169
I98
sVtype
p6170
VGear
p6171
ssV_index
p6172
Vevents
p6173
sa(dp6174
V_type
p6175
Vgearplace
p6176
sV_id
p6177
VAVuSWBGRirJ1pZWxmJ59
p6178
sV_source
p6179
(dp6180
Vstatus
p6181
VFailure
p6182
sVmatchPart
p6183
Vautonomous
p6184
sVgameId
p6185
I265
sVteamNumber
p6186
I6508
sVtimeTook
p6187
I10
sVcompetition
p6188
Vhouston
p6189
sVfailReason
p6190
VFailed because of mechanical failure / gear fell
p6191
sVlocation
p6192
VLeft
p6193
sVstartTime
p6194
I5
sVendTime
p6195
I15
ssV_index
p6196
Vevents
p6197
sa(dp6198
V_type
p6199
Vpickup
p6200
sV_id
p6201
VAVuSWvlcirJ1pZWxmJ6P
p6202
sV_source
p6203
(dp6204
Vstatus
p6205
VSuccess
p6206
sVmatchPart
p6207
Vteleop
p6208
sVgameId
p6209
I277
sVteamNumber
p6210
I1482
sVtimeTook
p6211
I2
sVcompetition
p6212
Vhouston
p6213
sVlocation
p6214
VFeeder
p6215
sVstartTime
p6216
I95
sVendTime
p6217
I97
sVtype
p6218
VGear
p6219
ssV_index
p6220
Vevents
p6221
sa(dp6222
V_type
p6223
Vpickup
p6224
sV_id
p6225
VAVuSUsCwirJ1pZWxmJ5b
p6226
sV_source
p6227
(dp6228
Vstatus
p6229
VSuccess
p6230
sVmatchPart
p6231
Vteleop
p6232
sVgameId
p6233
I271
sVteamNumber
p6234
I3834
sVtimeTook
p6235
I5
sVcompetition
p6236
Vhouston
p6237
sVlocation
p6238
VFeeder
p6239
sVstartTime
p6240
I53
sVendTime
p6241
I58
sVtype
p6242
VGear
p6243
ssV_index
p6244
Vevents
p6245
sa(dp6246
V_type
p6247
Vpickup
p6248
sV_id
p6249
VAVuSWI57irJ1pZWxmJ6D
p6250
sV_source
p6251
(dp6252
Vstatus
p6253
VSuccess
p6254
sVmatchPart
p6255
Vteleop
p6256
sVgameId
p6257
I265
sVteamNumber
p6258
I6508
sVtimeTook
p6259
I2
sVcompetition
p6260
Vhouston
p6261
sVlocation
p6262
VFeeder
p6263
sVstartTime
p6264
I34
sVendTime
p6265
I36
sVtype
p6266
VGear
p6267
ssV_index
p6268
Vevents
p6269
sa(dp6270
V_type
p6271
Vgearplace
p6272
sV_id
p6273
VAVuSVRPGirJ1pZWxmJ5v
p6274
sV_source
p6275
(dp6276
Vstatus
p6277
VSuccess
p6278
sVmatchPart
p6279
Vteleop
p6280
sVgameId
p6281
I277
sVteamNumber
p6282
I2928
sVtimeTook
p6283
I4
sVcompetition
p6284
Vhouston
p6285
sVlocation
p6286
VCenter
p6287
sVstartTime
p6288
I25
sVendTime
p6289
I29
ssV_index
p6290
Vevents
p6291
sa(dp6292
V_type
p6293
Vgearplace
p6294
sV_id
p6295
VAVuSWHHTirJ1pZWxmJ6B
p6296
sV_source
p6297
(dp6298
Vstatus
p6299
VSuccess
p6300
sVmatchPart
p6301
Vteleop
p6302
sVgameId
p6303
I277
sVteamNumber
p6304
I2928
sVtimeTook
p6305
I9
sVcompetition
p6306
Vhouston
p6307
sVlocation
p6308
VLeft
p6309
sVstartTime
p6310
I117
sVendTime
p6311
I126
ssV_index
p6312
Vevents
p6313
sa(dp6314
V_type
p6315
Vgearplace
p6316
sV_id
p6317
VAVuSUwhEirJ1pZWxmJ5f
p6318
sV_source
p6319
(dp6320
Vstatus
p6321
VSuccess
p6322
sVmatchPart
p6323
Vteleop
p6324
sVgameId
p6325
I265
sVteamNumber
p6326
I2485
sVtimeTook
p6327
I4
sVcompetition
p6328
Vhouston
p6329
sVlocation
p6330
VLeft
p6331
sVstartTime
p6332
I174
sVendTime
p6333
I178
ssV_index
p6334
Vevents
p6335
sa(dp6336
V_type
p6337
Vgearplace
p6338
sV_id
p6339
VAVuSU6G6irJ1pZWxmJ5k
p6340
sV_source
p6341
(dp6342
Vstatus
p6343
VSuccess
p6344
sVmatchPart
p6345
Vteleop
p6346
sVgameId
p6347
I275
sVteamNumber
p6348
I3653
sVtimeTook
p6349
I3
sVcompetition
p6350
Vhouston
p6351
sVlocation
p6352
VLeft
p6353
sVstartTime
p6354
I75
sVendTime
p6355
I78
ssV_index
p6356
Vevents
p6357
sa(dp6358
V_type
p6359
Vshooting
p6360
sV_id
p6361
VAVuSYa0girJ1pZWxmJ62
p6362
sV_source
p6363
(dp6364
Vstatus
p6365
VFailure
p6366
sVmatchPart
p6367
Vautonomous
p6368
sVgameId
p6369
I266
sVteamNumber
p6370
I4276
sVtimeTook
p6371
I5
sVcompetition
p6372
Vhouston
p6373
sVfailReason
p6374
VFailed because of mechanical failure
p6375
sVlocation
p6376
VHigh
p6377
sVstartTime
p6378
I11
sVendTime
p6379
I16
ssV_index
p6380
Vevents
p6381
sa(dp6382
V_type
p6383
Vpickup
p6384
sV_id
p6385
VAVuSX5BGirJ1pZWxmJ6p
p6386
sV_source
p6387
(dp6388
Vstatus
p6389
VSuccess
p6390
sVmatchPart
p6391
Vteleop
p6392
sVgameId
p6393
I278
sVteamNumber
p6394
I1477
sVtimeTook
p6395
I4
sVcompetition
p6396
Vhouston
p6397
sVlocation
p6398
VFeeder
p6399
sVstartTime
p6400
I126
sVendTime
p6401
I130
sVtype
p6402
VGear
p6403
ssV_index
p6404
Vevents
p6405
sa(dp6406
V_type
p6407
Vpickup
p6408
sV_id
p6409
VAVuSXC9QirJ1pZWxmJ6b
p6410
sV_source
p6411
(dp6412
Vstatus
p6413
VSuccess
p6414
sVmatchPart
p6415
Vteleop
p6416
sVgameId
p6417
I278
sVteamNumber
p6418
I1477
sVtimeTook
p6419
I4
sVcompetition
p6420
Vhouston
p6421
sVlocation
p6422
VFeeder
p6423
sVstartTime
p6424
I90
sVendTime
p6425
I94
sVtype
p6426
VGear
p6427
ssV_index
p6428
Vevents
p6429
sa(dp6430
V_type
p6431
Vpickup
p6432
sV_id
p6433
VAVuSX3jAirJ1pZWxmJ6o
p6434
sV_source
p6435
(dp6436
Vstatus
p6437
VSuccess
p6438
sVmatchPart
p6439
Vteleop
p6440
sVgameId
p6441
I277
sVteamNumber
p6442
I3826
sVtimeTook
p6443
I2
sVcompetition
p6444
Vhouston
p6445
sVlocation
p6446
VFeeder
p6447
sVstartTime
p6448
I49
sVendTime
p6449
I51
sVtype
p6450
VGear
p6451
ssV_index
p6452
Vevents
p6453
sa(dp6454
V_type
p6455
Vpickup
p6456
sV_id
p6457
VAVuSXVAXirJ1pZWxmJ6i
p6458
sV_source
p6459
(dp6460
Vstatus
p6461
VSuccess
p6462
sVmatchPart
p6463
Vteleop
p6464
sVgameId
p6465
I278
sVteamNumber
p6466
I8
sVtimeTook
p6467
I5
sVcompetition
p6468
Vhouston
p6469
sVlocation
p6470
VFeeder
p6471
sVstartTime
p6472
I25
sVendTime
p6473
I30
sVtype
p6474
VGear
p6475
ssV_index
p6476
Vevents
p6477
sa(dp6478
V_type
p6479
Vgearplace
p6480
sV_id
p6481
VAVuSXMS-irJ1pZWxmJ6e
p6482
sV_source
p6483
(dp6484
Vstatus
p6485
VSuccess
p6486
sVmatchPart
p6487
Vautonomous
p6488
sVgameId
p6489
I278
sVteamNumber
p6490
I8
sVtimeTook
p6491
I4
sVcompetition
p6492
Vhouston
p6493
sVlocation
p6494
VCenter
p6495
sVstartTime
p6496
I1
sVendTime
p6497
I5
ssV_index
p6498
Vevents
p6499
sa(dp6500
V_type
p6501
Vgearplace
p6502
sV_id
p6503
VAVuSX_7ZirJ1pZWxmJ6s
p6504
sV_source
p6505
(dp6506
Vstatus
p6507
VSuccess
p6508
sVmatchPart
p6509
Vteleop
p6510
sVgameId
p6511
I278
sVteamNumber
p6512
I8
sVtimeTook
p6513
I5
sVcompetition
p6514
Vhouston
p6515
sVlocation
p6516
VLeft
p6517
sVstartTime
p6518
I88
sVendTime
p6519
I93
ssV_index
p6520
Vevents
p6521
sa(dp6522
V_type
p6523
Vclimb
p6524
sV_id
p6525
VAVuSW85CirJ1pZWxmJ6Y
p6526
sV_source
p6527
(dp6528
Vstatus
p6529
VSuccess
p6530
sVmatchPart
p6531
Vteleop
p6532
sVgameId
p6533
I277
sVteamNumber
p6534
I1482
sVtimeTook
p6535
I15
sVcompetition
p6536
Vhouston
p6537
sVstartTime
p6538
I131
sVendTime
p6539
I146
ssV_index
p6540
Vevents
p6541
sa(dp6542
V_type
p6543
Vclimb
p6544
sV_id
p6545
VAVuSW1z8irJ1pZWxmJ6S
p6546
sV_source
p6547
(dp6548
Vstatus
p6549
VSuccess
p6550
sVmatchPart
p6551
Vteleop
p6552
sVgameId
p6553
I265
sVteamNumber
p6554
I6508
sVtimeTook
p6555
I11
sVcompetition
p6556
Vhouston
p6557
sVstartTime
p6558
I131
sVendTime
p6559
I142
ssV_index
p6560
Vevents
p6561
sa(dp6562
V_type
p6563
Vpickup
p6564
sV_id
p6565
VAVuSYtihirJ1pZWxmJ66
p6566
sV_source
p6567
(dp6568
Vstatus
p6569
VSuccess
p6570
sVmatchPart
p6571
Vteleop
p6572
sVgameId
p6573
I266
sVteamNumber
p6574
I4276
sVtimeTook
p6575
I6
sVcompetition
p6576
Vhouston
p6577
sVlocation
p6578
VFeeder
p6579
sVstartTime
p6580
I40
sVendTime
p6581
I46
sVtype
p6582
VGear
p6583
ssV_index
p6584
Vevents
p6585
sa(dp6586
V_type
p6587
Vpickup
p6588
sV_id
p6589
VAVuScLnQirJ1pZWxmJ7y
p6590
sV_source
p6591
(dp6592
Vstatus
p6593
VSuccess
p6594
sVmatchPart
p6595
Vteleop
p6596
sVgameId
p6597
I266
sVteamNumber
p6598
I4276
sVtimeTook
p6599
I0
sVcompetition
p6600
Vhouston
p6601
sVlocation
p6602
VFloor
p6603
sVstartTime
p6604
I92
sVendTime
p6605
I92
sVtype
p6606
VGear
p6607
ssV_index
p6608
Vevents
p6609
sa(dp6610
V_type
p6611
Vgearplace
p6612
sV_id
p6613
VAVuSYbP9irJ1pZWxmJ63
p6614
sV_source
p6615
(dp6616
Vstatus
p6617
VSuccess
p6618
sVmatchPart
p6619
Vautonomous
p6620
sVgameId
p6621
I277
sVteamNumber
p6622
I4592
sVtimeTook
p6623
I3
sVcompetition
p6624
Vhouston
p6625
sVlocation
p6626
VLeft
p6627
sVstartTime
p6628
I0
sVendTime
p6629
I3
ssV_index
p6630
Vevents
p6631
sa(dp6632
V_type
p6633
Vgearplace
p6634
sV_id
p6635
VAVuSbqIQirJ1pZWxmJ7d
p6636
sV_source
p6637
(dp6638
Vstatus
p6639
VSuccess
p6640
sVmatchPart
p6641
Vteleop
p6642
sVgameId
p6643
I276
sVteamNumber
p6644
I418
sVtimeTook
p6645
I4
sVcompetition
p6646
Vhouston
p6647
sVlocation
p6648
VCenter
p6649
sVstartTime
p6650
I39
sVendTime
p6651
I43
ssV_index
p6652
Vevents
p6653
sa(dp6654
V_type
p6655
Vgearplace
p6656
sV_id
p6657
VAVuScWj_irJ1pZWxmJ78
p6658
sV_source
p6659
(dp6660
Vstatus
p6661
VSuccess
p6662
sVmatchPart
p6663
Vteleop
p6664
sVgameId
p6665
I280
sVteamNumber
p6666
I441
sVtimeTook
p6667
I9
sVcompetition
p6668
Vhouston
p6669
sVlocation
p6670
VRight
p6671
sVstartTime
p6672
I131
sVendTime
p6673
I140
ssV_index
p6674
Vevents
p6675
sa(dp6676
V_type
p6677
VchassisFight
p6678
sV_id
p6679
VAVuSaiiyirJ1pZWxmJ7R
p6680
sV_source
p6681
(dp6682
Vstatus
p6683
VFailure
p6684
sVmatchPart
p6685
Vteleop
p6686
sVtimeTook
p6687
I3
sVgameId
p6688
I276
sVteamNumber
p6689
I3824
sVinitiated
p6690
I00
sVcompetition
p6691
Vhouston
p6692
sVfailReason
p6693
NsVfightReason
p6694
NsVstartTime
p6695
I66
sVendTime
p6696
I69
ssV_index
p6697
Vevents
p6698
sa(dp6699
V_type
p6700
Vgearplace
p6701
sV_id
p6702
VAVuScDy6irJ1pZWxmJ7s
p6703
sV_source
p6704
(dp6705
Vstatus
p6706
VSuccess
p6707
sVmatchPart
p6708
Vteleop
p6709
sVgameId
p6710
I277
sVteamNumber
p6711
I4371
sVtimeTook
p6712
I7
sVcompetition
p6713
Vhouston
p6714
sVlocation
p6715
VLeft
p6716
sVstartTime
p6717
I35
sVendTime
p6718
I42
ssV_index
p6719
Vevents
p6720
sa(dp6721
V_type
p6722
Vgearplace
p6723
sV_id
p6724
VAVuSb5U_irJ1pZWxmJ7k
p6725
sV_source
p6726
(dp6727
Vstatus
p6728
VSuccess
p6729
sVmatchPart
p6730
Vteleop
p6731
sVgameId
p6732
I280
sVteamNumber
p6733
I441
sVtimeTook
p6734
I5
sVcompetition
p6735
Vhouston
p6736
sVlocation
p6737
VLeft
p6738
sVstartTime
p6739
I63
sVendTime
p6740
I68
ssV_index
p6741
Vevents
p6742
sa(dp6743
V_type
p6744
Vpickup
p6745
sV_id
p6746
VAVuScZlEirJ1pZWxmJ7-
p6747
sV_source
p6748
(dp6749
Vstatus
p6750
VFailure
p6751
sVmatchPart
p6752
Vteleop
p6753
sVgameId
p6754
I277
sVteamNumber
p6755
I4371
sVtimeTook
p6756
I3
sVcompetition
p6757
Vhouston
p6758
sVfailReason
p6759
VFailed because of interruption
p6760
sVlocation
p6761
VFeeder
p6762
sVstartTime
p6763
I79
sVendTime
p6764
I82
sVtype
p6765
VGear
p6766
ssV_index
p6767
Vevents
p6768
sa(dp6769
V_type
p6770
Vshooting
p6771
sV_id
p6772
VAVuSdOHdirJ1pZWxmJ8b
p6773
sV_source
p6774
(dp6775
Vstatus
p6776
VFailure
p6777
sVmatchPart
p6778
Vautonomous
p6779
sVgameId
p6780
I280
sVteamNumber
p6781
I973
sVtimeTook
p6782
I6
sVcompetition
p6783
Vhouston
p6784
sVfailReason
p6785
VFailed because of mechanical failure
p6786
sVlocation
p6787
VHigh
p6788
sVstartTime
p6789
I4
sVendTime
p6790
I10
ssV_index
p6791
Vevents
p6792
sa(dp6793
V_type
p6794
Vpickup
p6795
sV_id
p6796
VAVuSdcWwirJ1pZWxmJ8o
p6797
sV_source
p6798
(dp6799
Vstatus
p6800
VSuccess
p6801
sVmatchPart
p6802
Vteleop
p6803
sVgameId
p6804
I278
sVteamNumber
p6805
I2655
sVtimeTook
p6806
I3
sVcompetition
p6807
Vhouston
p6808
sVlocation
p6809
VFeeder
p6810
sVstartTime
p6811
I95
sVendTime
p6812
I98
sVtype
p6813
VGear
p6814
ssV_index
p6815
Vevents
p6816
sa(dp6817
V_type
p6818
Vpickup
p6819
sV_id
p6820
VAVuSc9GxirJ1pZWxmJ8R
p6821
sV_source
p6822
(dp6823
Vstatus
p6824
VSuccess
p6825
sVmatchPart
p6826
Vteleop
p6827
sVgameId
p6828
I278
sVteamNumber
p6829
I2655
sVtimeTook
p6830
I2
sVcompetition
p6831
Vhouston
p6832
sVlocation
p6833
VFeeder
p6834
sVstartTime
p6835
I22
sVendTime
p6836
I24
sVtype
p6837
VGear
p6838
ssV_index
p6839
Vevents
p6840
sa(dp6841
V_type
p6842
Vpickup
p6843
sV_id
p6844
VAVuSdb6NirJ1pZWxmJ8m
p6845
sV_source
p6846
(dp6847
Vstatus
p6848
VSuccess
p6849
sVmatchPart
p6850
Vteleop
p6851
sVgameId
p6852
I198
sVteamNumber
p6853
I5803
sVtimeTook
p6854
I2
sVcompetition
p6855
Vhouston
p6856
sVlocation
p6857
VFloor
p6858
sVstartTime
p6859
I108
sVendTime
p6860
I110
sVtype
p6861
VGear
p6862
ssV_index
p6863
Vevents
p6864
sa(dp6865
V_type
p6866
Vclimb
p6867
sV_id
p6868
VAVuScvToirJ1pZWxmJ8J
p6869
sV_source
p6870
(dp6871
Vstatus
p6872
VFailure
p6873
sVmatchPart
p6874
Vteleop
p6875
sVgameId
p6876
I277
sVteamNumber
p6877
I4371
sVtimeTook
p6878
I13
sVcompetition
p6879
Vhouston
p6880
sVfailReason
p6881
VFailed because game ended
p6882
sVstartTime
p6883
I138
sVendTime
p6884
I151
ssV_index
p6885
Vevents
p6886
sa(dp6887
V_type
p6888
Vgearplace
p6889
sV_id
p6890
VAVuSdiEvirJ1pZWxmJ8v
p6891
sV_source
p6892
(dp6893
Vstatus
p6894
VSuccess
p6895
sVmatchPart
p6896
Vteleop
p6897
sVgameId
p6898
I276
sVteamNumber
p6899
I3824
sVtimeTook
p6900
I4
sVcompetition
p6901
Vhouston
p6902
sVlocation
p6903
VCenter
p6904
sVstartTime
p6905
I128
sVendTime
p6906
I132
ssV_index
p6907
Vevents
p6908
sa(dp6909
V_type
p6910
VchassisFight
p6911
sV_id
p6912
VAVuSdZLSirJ1pZWxmJ8k
p6913
sV_source
p6914
(dp6915
Vstatus
p6916
VSuccess
p6917
sVmatchPart
p6918
Vteleop
p6919
sVtimeTook
p6920
I2
sVgameId
p6921
I198
sVteamNumber
p6922
I5803
sVinitiated
p6923
I01
sVcompetition
p6924
Vhouston
p6925
sVfailReason
p6926
NsVfightReason
p6927
NsVstartTime
p6928
I104
sVendTime
p6929
I106
ssV_index
p6930
Vevents
p6931
sa(dp6932
V_type
p6933
Vclimb
p6934
sV_id
p6935
VAVuScg46irJ1pZWxmJ8E
p6936
sV_source
p6937
(dp6938
Vstatus
p6939
VSuccess
p6940
sVmatchPart
p6941
Vteleop
p6942
sVgameId
p6943
I266
sVteamNumber
p6944
I4276
sVtimeTook
p6945
I2
sVcompetition
p6946
Vhouston
p6947
sVstartTime
p6948
I147
sVendTime
p6949
I149
ssV_index
p6950
Vevents
p6951
sa(dp6952
V_type
p6953
Vpickup
p6954
sV_id
p6955
VAVuSeRl7irJ1pZWxmJ86
p6956
sV_source
p6957
(dp6958
Vstatus
p6959
VSuccess
p6960
sVmatchPart
p6961
Vteleop
p6962
sVgameId
p6963
I265
sVteamNumber
p6964
I4060
sVtimeTook
p6965
I8
sVcompetition
p6966
Vhouston
p6967
sVlocation
p6968
VFeeder
p6969
sVstartTime
p6970
I36
sVendTime
p6971
I44
sVtype
p6972
VGear
p6973
ssV_index
p6974
Vevents
p6975
sa(dp6976
V_type
p6977
Vpickup
p6978
sV_id
p6979
VAVuSeWYyirJ1pZWxmJ87
p6980
sV_source
p6981
(dp6982
Vstatus
p6983
VSuccess
p6984
sVmatchPart
p6985
Vteleop
p6986
sVgameId
p6987
I251
sVteamNumber
p6988
I3653
sVtimeTook
p6989
I4
sVcompetition
p6990
Vhouston
p6991
sVlocation
p6992
VFeeder
p6993
sVstartTime
p6994
I43
sVendTime
p6995
I47
sVtype
p6996
VGear
p6997
ssV_index
p6998
Vevents
p6999
sa(dp7000
V_type
p7001
Vpickup
p7002
sV_id
p7003
VAVuSeqYpirJ1pZWxmJ9H
p7004
sV_source
p7005
(dp7006
Vstatus
p7007
VSuccess
p7008
sVmatchPart
p7009
Vteleop
p7010
sVgameId
p7011
I265
sVteamNumber
p7012
I4060
sVtimeTook
p7013
I3
sVcompetition
p7014
Vhouston
p7015
sVlocation
p7016
VFeeder
p7017
sVstartTime
p7018
I81
sVendTime
p7019
I84
sVtype
p7020
VGear
p7021
ssV_index
p7022
Vevents
p7023
sa(dp7024
V_type
p7025
Vpickup
p7026
sV_id
p7027
VAVuSegwqirJ1pZWxmJ9B
p7028
sV_source
p7029
(dp7030
Vstatus
p7031
VSuccess
p7032
sVmatchPart
p7033
Vteleop
p7034
sVgameId
p7035
I265
sVteamNumber
p7036
I4060
sVtimeTook
p7037
I2
sVcompetition
p7038
Vhouston
p7039
sVlocation
p7040
VFeeder
p7041
sVstartTime
p7042
I64
sVendTime
p7043
I66
sVtype
p7044
VGear
p7045
ssV_index
p7046
Vevents
p7047
sa(dp7048
V_type
p7049
Vclimb
p7050
sV_id
p7051
VAVuSdrPSirJ1pZWxmJ8z
p7052
sV_source
p7053
(dp7054
Vstatus
p7055
VFailure
p7056
sVmatchPart
p7057
Vteleop
p7058
sVgameId
p7059
I278
sVteamNumber
p7060
I2655
sVtimeTook
p7061
I20
sVcompetition
p7062
Vhouston
p7063
sVfailReason
p7064
VFailed because game ended
p7065
sVstartTime
p7066
I134
sVendTime
p7067
I154
ssV_index
p7068
Vevents
p7069
sa(dp7070
V_type
p7071
Vgearplace
p7072
sV_id
p7073
VAVuSdmbUirJ1pZWxmJ8y
p7074
sV_source
p7075
(dp7076
Vstatus
p7077
VSuccess
p7078
sVmatchPart
p7079
Vteleop
p7080
sVgameId
p7081
I198
sVteamNumber
p7082
I5803
sVtimeTook
p7083
I3
sVcompetition
p7084
Vhouston
p7085
sVlocation
p7086
VCenter
p7087
sVstartTime
p7088
I140
sVendTime
p7089
I143
ssV_index
p7090
Vevents
p7091
sa(dp7092
V_type
p7093
Vgearplace
p7094
sV_id
p7095
VAVuSeY6DirJ1pZWxmJ8-
p7096
sV_source
p7097
(dp7098
Vstatus
p7099
VSuccess
p7100
sVmatchPart
p7101
Vteleop
p7102
sVgameId
p7103
I251
sVteamNumber
p7104
I3653
sVtimeTook
p7105
I3
sVcompetition
p7106
Vhouston
p7107
sVlocation
p7108
VLeft
p7109
sVstartTime
p7110
I54
sVendTime
p7111
I57
ssV_index
p7112
Vevents
p7113
sa(dp7114
V_type
p7115
Vclimb
p7116
sV_id
p7117
VAVuSdtSZirJ1pZWxmJ80
p7118
sV_source
p7119
(dp7120
Vstatus
p7121
VSuccess
p7122
sVmatchPart
p7123
Vteleop
p7124
sVgameId
p7125
I198
sVteamNumber
p7126
I5803
sVtimeTook
p7127
I9
sVcompetition
p7128
Vhouston
p7129
sVstartTime
p7130
I155
sVendTime
p7131
I164
ssV_index
p7132
Vevents
p7133
sa(dp7134
V_type
p7135
Vcomment
p7136
sV_id
p7137
VAVuSeYWvirJ1pZWxmJ89
p7138
sV_source
p7139
(dp7140
Vcontent
p7141
Vdropped gear
p7142
sVtimeTook
p7143
NsVgameId
p7144
I265
sVcompetition
p7145
Vhouston
p7146
sVteamNumber
p7147
I4060
ssV_index
p7148
Vevents
p7149
sa(dp7150
V_type
p7151
Vgearplace
p7152
sV_id
p7153
VAVuSgVVcirJ1pZWxmJ9b
p7154
sV_source
p7155
(dp7156
Vstatus
p7157
VFailure
p7158
sVmatchPart
p7159
Vteleop
p7160
sVgameId
p7161
I240
sVteamNumber
p7162
I441
sVtimeTook
p7163
I17
sVcompetition
p7164
Vhouston
p7165
sVfailReason
p7166
VFailed because of mechanical failure / gear fell
p7167
sVlocation
p7168
VLeft
p7169
sVstartTime
p7170
I369
sVendTime
p7171
I386
ssV_index
p7172
Vevents
p7173
sa(dp7174
V_type
p7175
Vpickup
p7176
sV_id
p7177
VAVuSgsZGirJ1pZWxmJ9i
p7178
sV_source
p7179
(dp7180
Vstatus
p7181
VSuccess
p7182
sVmatchPart
p7183
Vteleop
p7184
sVgameId
p7185
I266
sVteamNumber
p7186
I6325
sVtimeTook
p7187
I2
sVcompetition
p7188
Vhouston
p7189
sVlocation
p7190
VFeeder
p7191
sVstartTime
p7192
I46
sVendTime
p7193
I48
sVtype
p7194
VGear
p7195
ssV_index
p7196
Vevents
p7197
sa(dp7198
V_type
p7199
Vpickup
p7200
sV_id
p7201
VAVuSg4leirJ1pZWxmJ9o
p7202
sV_source
p7203
(dp7204
Vstatus
p7205
VSuccess
p7206
sVmatchPart
p7207
Vteleop
p7208
sVgameId
p7209
I246
sVteamNumber
p7210
I1339
sVtimeTook
p7211
I3
sVcompetition
p7212
Vhouston
p7213
sVlocation
p7214
VFloor
p7215
sVstartTime
p7216
I37
sVendTime
p7217
I40
sVtype
p7218
VGear
p7219
ssV_index
p7220
Vevents
p7221
sa(dp7222
V_type
p7223
Vpickup
p7224
sV_id
p7225
VAVuShGovirJ1pZWxmJ9s
p7226
sV_source
p7227
(dp7228
Vstatus
p7229
VSuccess
p7230
sVmatchPart
p7231
Vteleop
p7232
sVgameId
p7233
I246
sVteamNumber
p7234
I1339
sVtimeTook
p7235
I3
sVcompetition
p7236
Vhouston
p7237
sVlocation
p7238
VFloor
p7239
sVstartTime
p7240
I59
sVendTime
p7241
I62
sVtype
p7242
VGear
p7243
ssV_index
p7244
Vevents
p7245
sa(dp7246
V_type
p7247
Vpickup
p7248
sV_id
p7249
VAVuSgD_5irJ1pZWxmJ9X
p7250
sV_source
p7251
(dp7252
Vstatus
p7253
VSuccess
p7254
sVmatchPart
p7255
Vteleop
p7256
sVgameId
p7257
I280
sVteamNumber
p7258
I973
sVtimeTook
p7259
I11
sVcompetition
p7260
Vhouston
p7261
sVlocation
p7262
VFloor
p7263
sVstartTime
p7264
I65
sVendTime
p7265
I76
sVtype
p7266
VBall
p7267
ssV_index
p7268
Vevents
p7269
sa(dp7270
V_type
p7271
Vgearplace
p7272
sV_id
p7273
VAVuSgxlfirJ1pZWxmJ9l
p7274
sV_source
p7275
(dp7276
Vstatus
p7277
VSuccess
p7278
sVmatchPart
p7279
Vautonomous
p7280
sVgameId
p7281
I246
sVteamNumber
p7282
I1339
sVtimeTook
p7283
I4
sVcompetition
p7284
Vhouston
p7285
sVlocation
p7286
VCenter
p7287
sVstartTime
p7288
I8
sVendTime
p7289
I12
ssV_index
p7290
Vevents
p7291
sa(dp7292
V_type
p7293
Vgearplace
p7294
sV_id
p7295
VAVuSe84kirJ1pZWxmJ9N
p7296
sV_source
p7297
(dp7298
Vstatus
p7299
VSuccess
p7300
sVmatchPart
p7301
Vteleop
p7302
sVgameId
p7303
I265
sVteamNumber
p7304
I4060
sVtimeTook
p7305
I12
sVcompetition
p7306
Vhouston
p7307
sVlocation
p7308
VRight
p7309
sVstartTime
p7310
I108
sVendTime
p7311
I120
ssV_index
p7312
Vevents
p7313
sa(dp7314
V_type
p7315
Vgearplace
p7316
sV_id
p7317
VAVuSfroZirJ1pZWxmJ9P
p7318
sV_source
p7319
(dp7320
Vstatus
p7321
VSuccess
p7322
sVmatchPart
p7323
Vteleop
p7324
sVgameId
p7325
I240
sVteamNumber
p7326
I441
sVtimeTook
p7327
I6
sVcompetition
p7328
Vhouston
p7329
sVlocation
p7330
VLeft
p7331
sVstartTime
p7332
I261
sVendTime
p7333
I267
ssV_index
p7334
Vevents
p7335
sa(dp7336
V_type
p7337
Vclimb
p7338
sV_id
p7339
VAVuSgfk5irJ1pZWxmJ9g
p7340
sV_source
p7341
(dp7342
Vstatus
p7343
VSuccess
p7344
sVmatchPart
p7345
Vteleop
p7346
sVgameId
p7347
I280
sVteamNumber
p7348
I973
sVtimeTook
p7349
I5
sVcompetition
p7350
Vhouston
p7351
sVstartTime
p7352
I138
sVendTime
p7353
I143
ssV_index
p7354
Vevents
p7355
sa(dp7356
V_type
p7357
Vpickup
p7358
sV_id
p7359
VAVuSlJZXirJ1pZWxmJ-r
p7360
sV_source
p7361
(dp7362
Vstatus
p7363
VFailure
p7364
sVmatchPart
p7365
Vteleop
p7366
sVgameId
p7367
I240
sVteamNumber
p7368
I2928
sVtimeTook
p7369
I3
sVcompetition
p7370
Vhouston
p7371
sVfailReason
p7372
VFailed because of interruption
p7373
sVlocation
p7374
VFeeder
p7375
sVstartTime
p7376
I46
sVendTime
p7377
I49
sVtype
p7378
VGear
p7379
ssV_index
p7380
Vevents
p7381
sa(dp7382
V_type
p7383
Vpickup
p7384
sV_id
p7385
VAVuShTwdirJ1pZWxmJ9w
p7386
sV_source
p7387
(dp7388
Vstatus
p7389
VSuccess
p7390
sVmatchPart
p7391
Vteleop
p7392
sVgameId
p7393
I263
sVteamNumber
p7394
I5970
sVtimeTook
p7395
I4
sVcompetition
p7396
Vhouston
p7397
sVlocation
p7398
VFeeder
p7399
sVstartTime
p7400
I33
sVendTime
p7401
I37
sVtype
p7402
VGear
p7403
ssV_index
p7404
Vevents
p7405
sa(dp7406
V_type
p7407
Vpickup
p7408
sV_id
p7409
VAVuSlYHmirJ1pZWxmJ-z
p7410
sV_source
p7411
(dp7412
Vstatus
p7413
VSuccess
p7414
sVmatchPart
p7415
Vteleop
p7416
sVgameId
p7417
I252
sVteamNumber
p7418
I488
sVtimeTook
p7419
I2
sVcompetition
p7420
Vhouston
p7421
sVlocation
p7422
VHopper
p7423
sVstartTime
p7424
I74
sVendTime
p7425
I76
sVtype
p7426
VBall
p7427
ssV_index
p7428
Vevents
p7429
sa(dp7430
V_type
p7431
VchassisFight
p7432
sV_id
p7433
VAVuSh3tSirJ1pZWxmJ-D
p7434
sV_source
p7435
(dp7436
Vstatus
p7437
VSuccess
p7438
sVmatchPart
p7439
Vteleop
p7440
sVtimeTook
p7441
I3
sVgameId
p7442
I246
sVteamNumber
p7443
I1339
sVinitiated
p7444
I01
sVcompetition
p7445
Vhouston
p7446
sVfailReason
p7447
NsVfightReason
p7448
NsVstartTime
p7449
I130
sVendTime
p7450
I133
ssV_index
p7451
Vevents
p7452
sa(dp7453
V_type
p7454
VchassisFight
p7455
sV_id
p7456
VAVuSlec7irJ1pZWxmJ-5
p7457
sV_source
p7458
(dp7459
Vstatus
p7460
VFailure
p7461
sVmatchPart
p7462
Vteleop
p7463
sVtimeTook
p7464
I6
sVgameId
p7465
I240
sVteamNumber
p7466
I2928
sVinitiated
p7467
I01
sVcompetition
p7468
Vhouston
p7469
sVfailReason
p7470
NsVfightReason
p7471
NsVstartTime
p7472
I111
sVendTime
p7473
I117
ssV_index
p7474
Vevents
p7475
sa(dp7476
V_type
p7477
VchassisFight
p7478
sV_id
p7479
VAVuSlhPPirJ1pZWxmJ-8
p7480
sV_source
p7481
(dp7482
Vstatus
p7483
VFailure
p7484
sVmatchPart
p7485
Vteleop
p7486
sVtimeTook
p7487
I5
sVgameId
p7488
I240
sVteamNumber
p7489
I2928
sVinitiated
p7490
I01
sVcompetition
p7491
Vhouston
p7492
sVfailReason
p7493
NsVfightReason
p7494
NsVstartTime
p7495
I122
sVendTime
p7496
I127
ssV_index
p7497
Vevents
p7498
sa(dp7499
V_type
p7500
VchassisFight
p7501
sV_id
p7502
VAVuSh49DirJ1pZWxmJ-E
p7503
sV_source
p7504
(dp7505
Vstatus
p7506
VSuccess
p7507
sVmatchPart
p7508
Vteleop
p7509
sVtimeTook
p7510
I1
sVgameId
p7511
I246
sVteamNumber
p7512
I1339
sVinitiated
p7513
I01
sVcompetition
p7514
Vhouston
p7515
sVfailReason
p7516
NsVfightReason
p7517
NsVstartTime
p7518
I134
sVendTime
p7519
I135
ssV_index
p7520
Vevents
p7521
sa(dp7522
V_type
p7523
VchassisFight
p7524
sV_id
p7525
VAVuSlTeUirJ1pZWxmJ-u
p7526
sV_source
p7527
(dp7528
Vstatus
p7529
VSuccess
p7530
sVmatchPart
p7531
Vteleop
p7532
sVtimeTook
p7533
I6
sVgameId
p7534
I240
sVteamNumber
p7535
I2928
sVinitiated
p7536
I01
sVcompetition
p7537
Vhouston
p7538
sVfailReason
p7539
NsVfightReason
p7540
NsVstartTime
p7541
I70
sVendTime
p7542
I76
ssV_index
p7543
Vevents
p7544
sa(dp7545
V_type
p7546
Vclimb
p7547
sV_id
p7548
VAVuSkKTFirJ1pZWxmJ-d
p7549
sV_source
p7550
(dp7551
Vstatus
p7552
VSuccess
p7553
sVmatchPart
p7554
Vteleop
p7555
sVgameId
p7556
I198
sVteamNumber
p7557
I4219
sVtimeTook
p7558
I12
sVcompetition
p7559
Vhouston
p7560
sVstartTime
p7561
I132
sVendTime
p7562
I144
ssV_index
p7563
Vevents
p7564
sa(dp7565
V_type
p7566
Vpickup
p7567
sV_id
p7568
VAVuSmSTgirJ1pZWxmJ_U
p7569
sV_source
p7570
(dp7571
Vstatus
p7572
VFailure
p7573
sVmatchPart
p7574
Vteleop
p7575
sVgameId
p7576
I278
sVteamNumber
p7577
I3229
sVtimeTook
p7578
I5
sVcompetition
p7579
Vhouston
p7580
sVfailReason
p7581
VFailed because of mechanical failure
p7582
sVlocation
p7583
VFeeder
p7584
sVstartTime
p7585
I48
sVendTime
p7586
I53
sVtype
p7587
VGear
p7588
ssV_index
p7589
Vevents
p7590
sa(dp7591
V_type
p7592
Vgearplace
p7593
sV_id
p7594
VAVuSlzlwirJ1pZWxmJ_H
p7595
sV_source
p7596
(dp7597
Vstatus
p7598
VFailure
p7599
sVmatchPart
p7600
Vautonomous
p7601
sVgameId
p7602
I246
sVteamNumber
p7603
I435
sVtimeTook
p7604
I2
sVcompetition
p7605
Vhouston
p7606
sVfailReason
p7607
VFailed because of mechanical failure / gear fell
p7608
sVlocation
p7609
VCenter
p7610
sVstartTime
p7611
I2
sVendTime
p7612
I4
ssV_index
p7613
Vevents
p7614
sa(dp7615
V_type
p7616
Vpickup
p7617
sV_id
p7618
VAVuSm47QirJ1pZWxmJ_q
p7619
sV_source
p7620
(dp7621
Vstatus
p7622
VSuccess
p7623
sVmatchPart
p7624
Vautonomous
p7625
sVgameId
p7626
I279
sVteamNumber
p7627
I1011
sVtimeTook
p7628
I1
sVcompetition
p7629
Vhouston
p7630
sVlocation
p7631
VFloor
p7632
sVstartTime
p7633
I4
sVendTime
p7634
I5
sVtype
p7635
VGear
p7636
ssV_index
p7637
Vevents
p7638
sa(dp7639
V_type
p7640
Vpickup
p7641
sV_id
p7642
VAVuSmNVyirJ1pZWxmJ_Q
p7643
sV_source
p7644
(dp7645
Vstatus
p7646
VSuccess
p7647
sVmatchPart
p7648
Vteleop
p7649
sVgameId
p7650
I278
sVteamNumber
p7651
I3229
sVtimeTook
p7652
I9
sVcompetition
p7653
Vhouston
p7654
sVlocation
p7655
VFeeder
p7656
sVstartTime
p7657
I25
sVendTime
p7658
I34
sVtype
p7659
VGear
p7660
ssV_index
p7661
Vevents
p7662
sa(dp7663
V_type
p7664
Vpickup
p7665
sV_id
p7666
VAVuSmlDQirJ1pZWxmJ_f
p7667
sV_source
p7668
(dp7669
Vstatus
p7670
VSuccess
p7671
sVmatchPart
p7672
Vteleop
p7673
sVgameId
p7674
I277
sVteamNumber
p7675
I955
sVtimeTook
p7676
I5
sVcompetition
p7677
Vhouston
p7678
sVlocation
p7679
VHopper
p7680
sVstartTime
p7681
I79
sVendTime
p7682
I84
sVtype
p7683
VBall
p7684
ssV_index
p7685
Vevents
p7686
sa(dp7687
V_type
p7688
Vgearplace
p7689
sV_id
p7690
VAVuSnEESirJ1pZWxmJ_u
p7691
sV_source
p7692
(dp7693
Vstatus
p7694
VSuccess
p7695
sVmatchPart
p7696
Vteleop
p7697
sVgameId
p7698
I279
sVteamNumber
p7699
I1011
sVtimeTook
p7700
I4
sVcompetition
p7701
Vhouston
p7702
sVlocation
p7703
VRight
p7704
sVstartTime
p7705
I31
sVendTime
p7706
I35
ssV_index
p7707
Vevents
p7708
sa(dp7709
V_type
p7710
Vgearplace
p7711
sV_id
p7712
VAVuSmuzKirJ1pZWxmJ_k
p7713
sV_source
p7714
(dp7715
Vstatus
p7716
VSuccess
p7717
sVmatchPart
p7718
Vteleop
p7719
sVgameId
p7720
I246
sVteamNumber
p7721
I435
sVtimeTook
p7722
I4
sVcompetition
p7723
Vhouston
p7724
sVlocation
p7725
VLeft
p7726
sVstartTime
p7727
I56
sVendTime
p7728
I60
ssV_index
p7729
Vevents
p7730
sa(dp7731
V_type
p7732
Vclimb
p7733
sV_id
p7734
VAVuSmLZeirJ1pZWxmJ_P
p7735
sV_source
p7736
(dp7737
Vstatus
p7738
VSuccess
p7739
sVmatchPart
p7740
Vteleop
p7741
sVgameId
p7742
I279
sVteamNumber
p7743
I5026
sVtimeTook
p7744
I8
sVcompetition
p7745
Vhouston
p7746
sVstartTime
p7747
I132
sVendTime
p7748
I140
ssV_index
p7749
Vevents
p7750
sa(dp7751
V_type
p7752
Vcomment
p7753
sV_id
p7754
VAVuSmxCHirJ1pZWxmJ_m
p7755
sV_source
p7756
(dp7757
Vcontent
p7758
V\u05e0\u05e4\u05dc \u05dc\u05d4\u05dd \u05d4\u05d2\u05d9\u05e8 \u05d0\u05d7\u05e8\u05d9 \u05e9\u05d4\u05ea\u05e0\u05d2\u05e9\u05d5 \u05d1\u05d4\u05dd \u05de\u05d0\u05d7\u05d5\u05e8
p7759
sVtimeTook
p7760
NsVgameId
p7761
I255
sVcompetition
p7762
Vhouston
p7763
sVteamNumber
p7764
I4723
ssV_index
p7765
Vevents
p7766
sa(dp7767
V_type
p7768
Vpickup
p7769
sV_id
p7770
VAVuSnULLirJ1pZWxmJ_7
p7771
sV_source
p7772
(dp7773
Vstatus
p7774
VSuccess
p7775
sVmatchPart
p7776
Vteleop
p7777
sVgameId
p7778
I282
sVteamNumber
p7779
I3140
sVtimeTook
p7780
I5
sVcompetition
p7781
Vhouston
p7782
sVlocation
p7783
VFeeder
p7784
sVstartTime
p7785
I64
sVendTime
p7786
I69
sVtype
p7787
VGear
p7788
ssV_index
p7789
Vevents
p7790
sa(dp7791
V_type
p7792
Vpickup
p7793
sV_id
p7794
VAVuSodhZirJ1pZWxmKAV
p7795
sV_source
p7796
(dp7797
Vstatus
p7798
VSuccess
p7799
sVmatchPart
p7800
Vteleop
p7801
sVgameId
p7802
I278
sVteamNumber
p7803
I5499
sVtimeTook
p7804
I2
sVcompetition
p7805
Vhouston
p7806
sVlocation
p7807
VFloor
p7808
sVstartTime
p7809
I56
sVendTime
p7810
I58
sVtype
p7811
VGear
p7812
ssV_index
p7813
Vevents
p7814
sa(dp7815
V_type
p7816
Vgearplace
p7817
sV_id
p7818
VAVuSnlgXirJ1pZWxmKAI
p7819
sV_source
p7820
(dp7821
Vstatus
p7822
VSuccess
p7823
sVmatchPart
p7824
Vteleop
p7825
sVgameId
p7826
I282
sVteamNumber
p7827
I3140
sVtimeTook
p7828
I3
sVcompetition
p7829
Vhouston
p7830
sVlocation
p7831
VRight
p7832
sVstartTime
p7833
I126
sVendTime
p7834
I129
ssV_index
p7835
Vevents
p7836
sa(dp7837
V_type
p7838
VchassisFight
p7839
sV_id
p7840
VAVuSnM6PirJ1pZWxmJ_z
p7841
sV_source
p7842
(dp7843
Vstatus
p7844
VFailure
p7845
sVmatchPart
p7846
Vteleop
p7847
sVtimeTook
p7848
I2
sVgameId
p7849
I255
sVteamNumber
p7850
I4723
sVinitiated
p7851
I00
sVcompetition
p7852
Vhouston
p7853
sVfailReason
p7854
NsVfightReason
p7855
NsVstartTime
p7856
I106
sVendTime
p7857
I108
ssV_index
p7858
Vevents
p7859
sa(dp7860
V_type
p7861
VchassisFight
p7862
sV_id
p7863
VAVuSnO6airJ1pZWxmJ_1
p7864
sV_source
p7865
(dp7866
Vstatus
p7867
VFailure
p7868
sVmatchPart
p7869
Vteleop
p7870
sVtimeTook
p7871
I2
sVgameId
p7872
I255
sVteamNumber
p7873
I4723
sVinitiated
p7874
I00
sVcompetition
p7875
Vhouston
p7876
sVfailReason
p7877
NsVfightReason
p7878
NsVstartTime
p7879
I114
sVendTime
p7880
I116
ssV_index
p7881
Vevents
p7882
sa(dp7883
V_type
p7884
Vgearplace
p7885
sV_id
p7886
VAVuSnzTrirJ1pZWxmKAJ
p7887
sV_source
p7888
(dp7889
Vstatus
p7890
VSuccess
p7891
sVmatchPart
p7892
Vteleop
p7893
sVgameId
p7894
I263
sVteamNumber
p7895
I2881
sVtimeTook
p7896
I26
sVcompetition
p7897
Vhouston
p7898
sVlocation
p7899
VLeft
p7900
sVstartTime
p7901
I51
sVendTime
p7902
I77
ssV_index
p7903
Vevents
p7904
sa(dp7905
V_type
p7906
VchassisFight
p7907
sV_id
p7908
VAVuSnGh4irJ1pZWxmJ_v
p7909
sV_source
p7910
(dp7911
Vstatus
p7912
VFailure
p7913
sVmatchPart
p7914
Vteleop
p7915
sVtimeTook
p7916
I3
sVgameId
p7917
I255
sVteamNumber
p7918
I4723
sVinitiated
p7919
I00
sVcompetition
p7920
Vhouston
p7921
sVfailReason
p7922
NsVfightReason
p7923
NsVstartTime
p7924
I80
sVendTime
p7925
I83
ssV_index
p7926
Vevents
p7927
sa(dp7928
V_type
p7929
Vgearplace
p7930
sV_id
p7931
VAVuSoh4VirJ1pZWxmKAY
p7932
sV_source
p7933
(dp7934
Vstatus
p7935
VSuccess
p7936
sVmatchPart
p7937
Vteleop
p7938
sVgameId
p7939
I246
sVteamNumber
p7940
I435
sVtimeTook
p7941
I6
sVcompetition
p7942
Vhouston
p7943
sVlocation
p7944
VLeft
p7945
sVstartTime
p7946
I85
sVendTime
p7947
I91
ssV_index
p7948
Vevents
p7949
sa(dp7950
V_type
p7951
Vclimb
p7952
sV_id
p7953
VAVuSoA-IirJ1pZWxmKAK
p7954
sV_source
p7955
(dp7956
Vstatus
p7957
VSuccess
p7958
sVmatchPart
p7959
Vteleop
p7960
sVgameId
p7961
I282
sVteamNumber
p7962
I3140
sVtimeTook
p7963
I4
sVcompetition
p7964
Vhouston
p7965
sVstartTime
p7966
I138
sVendTime
p7967
I142
ssV_index
p7968
Vevents
p7969
sa(dp7970
V_type
p7971
Vpickup
p7972
sV_id
p7973
VAVuSonjDirJ1pZWxmKAc
p7974
sV_source
p7975
(dp7976
Vstatus
p7977
VSuccess
p7978
sVmatchPart
p7979
Vteleop
p7980
sVgameId
p7981
I263
sVteamNumber
p7982
I2881
sVtimeTook
p7983
I7
sVcompetition
p7984
Vhouston
p7985
sVlocation
p7986
VFeeder
p7987
sVstartTime
p7988
I148
sVendTime
p7989
I155
sVtype
p7990
VGear
p7991
ssV_index
p7992
Vevents
p7993
sa(dp7994
V_type
p7995
Vpickup
p7996
sV_id
p7997
VAVuSqpyOirJ1pZWxmKBP
p7998
sV_source
p7999
(dp8000
Vstatus
p8001
VSuccess
p8002
sVmatchPart
p8003
Vteleop
p8004
sVgameId
p8005
I251
sVteamNumber
p8006
I5026
sVtimeTook
p8007
I4
sVcompetition
p8008
Vhouston
p8009
sVlocation
p8010
VFeeder
p8011
sVstartTime
p8012
I96
sVendTime
p8013
I100
sVtype
p8014
VGear
p8015
ssV_index
p8016
Vevents
p8017
sa(dp8018
V_type
p8019
Vpickup
p8020
sV_id
p8021
VAVuSqMveirJ1pZWxmKBE
p8022
sV_source
p8023
(dp8024
Vstatus
p8025
VSuccess
p8026
sVmatchPart
p8027
Vteleop
p8028
sVgameId
p8029
I251
sVteamNumber
p8030
I5026
sVtimeTook
p8031
I2
sVcompetition
p8032
Vhouston
p8033
sVlocation
p8034
VFeeder
p8035
sVstartTime
p8036
I31
sVendTime
p8037
I33
sVtype
p8038
VGear
p8039
ssV_index
p8040
Vevents
p8041
sa(dp8042
V_type
p8043
Vpickup
p8044
sV_id
p8045
VAVuSq4H6irJ1pZWxmKBW
p8046
sV_source
p8047
(dp8048
Vstatus
p8049
VSuccess
p8050
sVmatchPart
p8051
Vteleop
p8052
sVgameId
p8053
I279
sVteamNumber
p8054
I115
sVtimeTook
p8055
I3
sVcompetition
p8056
Vhouston
p8057
sVlocation
p8058
VFeeder
p8059
sVstartTime
p8060
I50
sVendTime
p8061
I53
sVtype
p8062
VGear
p8063
ssV_index
p8064
Vevents
p8065
sa(dp8066
V_type
p8067
Vgearplace
p8068
sV_id
p8069
VAVuSop8pirJ1pZWxmKAf
p8070
sV_source
p8071
(dp8072
Vstatus
p8073
VSuccess
p8074
sVmatchPart
p8075
Vteleop
p8076
sVgameId
p8077
I246
sVteamNumber
p8078
I435
sVtimeTook
p8079
I4
sVcompetition
p8080
Vhouston
p8081
sVlocation
p8082
VCenter
p8083
sVstartTime
p8084
I111
sVendTime
p8085
I115
ssV_index
p8086
Vevents
p8087
sa(dp8088
V_type
p8089
Vgearplace
p8090
sV_id
p8091
VAVuSq0MLirJ1pZWxmKBT
p8092
sV_source
p8093
(dp8094
Vstatus
p8095
VSuccess
p8096
sVmatchPart
p8097
Vteleop
p8098
sVgameId
p8099
I279
sVteamNumber
p8100
I115
sVtimeTook
p8101
I4
sVcompetition
p8102
Vhouston
p8103
sVlocation
p8104
VCenter
p8105
sVstartTime
p8106
I35
sVendTime
p8107
I39
ssV_index
p8108
Vevents
p8109
sa(dp8110
V_type
p8111
VchassisFight
p8112
sV_id
p8113
VAVuSp085irJ1pZWxmKA9
p8114
sV_source
p8115
(dp8116
Vstatus
p8117
VFailure
p8118
sVmatchPart
p8119
Vteleop
p8120
sVtimeTook
p8121
I4
sVgameId
p8122
I279
sVteamNumber
p8123
I6560
sVinitiated
p8124
I01
sVcompetition
p8125
Vhouston
p8126
sVfailReason
p8127
NsVfightReason
p8128
NsVstartTime
p8129
I101
sVendTime
p8130
I105
ssV_index
p8131
Vevents
p8132
sa(dp8133
V_type
p8134
Vgearplace
p8135
sV_id
p8136
VAVuSqjtNirJ1pZWxmKBN
p8137
sV_source
p8138
(dp8139
Vstatus
p8140
VSuccess
p8141
sVmatchPart
p8142
Vteleop
p8143
sVgameId
p8144
I251
sVteamNumber
p8145
I5026
sVtimeTook
p8146
I4
sVcompetition
p8147
Vhouston
p8148
sVlocation
p8149
VLeft
p8150
sVstartTime
p8151
I82
sVendTime
p8152
I86
ssV_index
p8153
Vevents
p8154
sa(dp8155
V_type
p8156
VchassisFight
p8157
sV_id
p8158
VAVuSqgBzirJ1pZWxmKBL
p8159
sV_source
p8160
(dp8161
Vstatus
p8162
VFailure
p8163
sVmatchPart
p8164
Vteleop
p8165
sVtimeTook
p8166
I2
sVgameId
p8167
I281
sVteamNumber
p8168
I2905
sVinitiated
p8169
I00
sVcompetition
p8170
Vhouston
p8171
sVfailReason
p8172
NsVfightReason
p8173
NsVstartTime
p8174
I52
sVendTime
p8175
I54
ssV_index
p8176
Vevents
p8177
sa(dp8178
V_type
p8179
Vpickup
p8180
sV_id
p8181
VAVuSrDoWirJ1pZWxmKBc
p8182
sV_source
p8183
(dp8184
Vstatus
p8185
VSuccess
p8186
sVmatchPart
p8187
Vteleop
p8188
sVgameId
p8189
I279
sVteamNumber
p8190
I115
sVtimeTook
p8191
I2
sVcompetition
p8192
Vhouston
p8193
sVlocation
p8194
VFeeder
p8195
sVstartTime
p8196
I93
sVendTime
p8197
I95
sVtype
p8198
VGear
p8199
ssV_index
p8200
Vevents
p8201
sa(dp8202
V_type
p8203
Vpickup
p8204
sV_id
p8205
VAVuSrwk6irJ1pZWxmKBu
p8206
sV_source
p8207
(dp8208
Vstatus
p8209
VSuccess
p8210
sVmatchPart
p8211
Vteleop
p8212
sVgameId
p8213
I282
sVteamNumber
p8214
I2642
sVtimeTook
p8215
I3
sVcompetition
p8216
Vhouston
p8217
sVlocation
p8218
VFloor
p8219
sVstartTime
p8220
I103
sVendTime
p8221
I106
sVtype
p8222
VGear
p8223
ssV_index
p8224
Vevents
p8225
sa(dp8226
V_type
p8227
Vpickup
p8228
sV_id
p8229
VAVuSrtl1irJ1pZWxmKBr
p8230
sV_source
p8231
(dp8232
Vstatus
p8233
VSuccess
p8234
sVmatchPart
p8235
Vteleop
p8236
sVgameId
p8237
I282
sVteamNumber
p8238
I2642
sVtimeTook
p8239
I3
sVcompetition
p8240
Vhouston
p8241
sVlocation
p8242
VFloor
p8243
sVstartTime
p8244
I92
sVendTime
p8245
I95
sVtype
p8246
VGear
p8247
ssV_index
p8248
Vevents
p8249
sa(dp8250
V_type
p8251
Vgearplace
p8252
sV_id
p8253
VAVuStAbKirJ1pZWxmKCL
p8254
sV_source
p8255
(dp8256
Vstatus
p8257
VSuccess
p8258
sVmatchPart
p8259
Vteleop
p8260
sVgameId
p8261
I284
sVteamNumber
p8262
I4276
sVtimeTook
p8263
I4
sVcompetition
p8264
Vhouston
p8265
sVlocation
p8266
VRight
p8267
sVstartTime
p8268
I21
sVendTime
p8269
I25
ssV_index
p8270
Vevents
p8271
sa(dp8272
V_type
p8273
Vgearplace
p8274
sV_id
p8275
VAVuSq6-EirJ1pZWxmKBY
p8276
sV_source
p8277
(dp8278
Vstatus
p8279
VSuccess
p8280
sVmatchPart
p8281
Vteleop
p8282
sVgameId
p8283
I279
sVteamNumber
p8284
I115
sVtimeTook
p8285
I2
sVcompetition
p8286
Vhouston
p8287
sVlocation
p8288
VRight
p8289
sVstartTime
p8290
I62
sVendTime
p8291
I64
ssV_index
p8292
Vevents
p8293
sa(dp8294
V_type
p8295
VchassisFight
p8296
sV_id
p8297
VAVuSrLETirJ1pZWxmKBf
p8298
sV_source
p8299
(dp8300
Vstatus
p8301
VFailure
p8302
sVmatchPart
p8303
Vteleop
p8304
sVtimeTook
p8305
I4
sVgameId
p8306
I279
sVteamNumber
p8307
I115
sVinitiated
p8308
I00
sVcompetition
p8309
Vhouston
p8310
sVfailReason
p8311
NsVfightReason
p8312
NsVstartTime
p8313
I117
sVendTime
p8314
I121
ssV_index
p8315
Vevents
p8316
sa(dp8317
V_type
p8318
Vclimb
p8319
sV_id
p8320
VAVuSr6SxirJ1pZWxmKBz
p8321
sV_source
p8322
(dp8323
Vstatus
p8324
VSuccess
p8325
sVmatchPart
p8326
Vteleop
p8327
sVgameId
p8328
I280
sVteamNumber
p8329
I6304
sVtimeTook
p8330
I22
sVcompetition
p8331
Vhouston
p8332
sVstartTime
p8333
I127
sVendTime
p8334
I149
ssV_index
p8335
Vevents
p8336
sa(dp8337
V_type
p8338
Vclimb
p8339
sV_id
p8340
VAVuSrWh8irJ1pZWxmKBi
p8341
sV_source
p8342
(dp8343
Vstatus
p8344
VSuccess
p8345
sVmatchPart
p8346
Vteleop
p8347
sVgameId
p8348
I279
sVteamNumber
p8349
I115
sVtimeTook
p8350
I10
sVcompetition
p8351
Vhouston
p8352
sVstartTime
p8353
I128
sVendTime
p8354
I138
ssV_index
p8355
Vevents
p8356
sa(dp8357
V_type
p8358
Vcomment
p8359
sV_id
p8360
VAVuSrqcfirJ1pZWxmKBp
p8361
sV_source
p8362
(dp8363
Vcontent
p8364
V\u05e0\u05e4\u05dc \u05dc\u05d4\u05dd \u05d4\u05d2\u05d9\u05e8
p8365
sVtimeTook
p8366
NsVgameId
p8367
I282
sVcompetition
p8368
Vhouston
p8369
sVteamNumber
p8370
I2642
ssV_index
p8371
Vevents
p8372
sa(dp8373
V_type
p8374
Vpickup
p8375
sV_id
p8376
VAVuStH23irJ1pZWxmKCQ
p8377
sV_source
p8378
(dp8379
Vstatus
p8380
VSuccess
p8381
sVmatchPart
p8382
Vteleop
p8383
sVgameId
p8384
I252
sVteamNumber
p8385
I6560
sVtimeTook
p8386
I3
sVcompetition
p8387
Vhouston
p8388
sVlocation
p8389
VFeeder
p8390
sVstartTime
p8391
I113
sVendTime
p8392
I116
sVtype
p8393
VGear
p8394
ssV_index
p8395
Vevents
p8396
sa(dp8397
V_type
p8398
Vpickup
p8399
sV_id
p8400
VAVuStDleirJ1pZWxmKCN
p8401
sV_source
p8402
(dp8403
Vstatus
p8404
VSuccess
p8405
sVmatchPart
p8406
Vteleop
p8407
sVgameId
p8408
I284
sVteamNumber
p8409
I4276
sVtimeTook
p8410
I3
sVcompetition
p8411
Vhouston
p8412
sVlocation
p8413
VHopper
p8414
sVstartTime
p8415
I26
sVendTime
p8416
I29
sVtype
p8417
VBall
p8418
ssV_index
p8419
Vevents
p8420
sa(dp8421
V_type
p8422
Vclimb
p8423
sV_id
p8424
VAVuStRHeirJ1pZWxmKCV
p8425
sV_source
p8426
(dp8427
Vstatus
p8428
VFailure
p8429
sVmatchPart
p8430
Vteleop
p8431
sVgameId
p8432
I252
sVteamNumber
p8433
I6560
sVtimeTook
p8434
I8
sVcompetition
p8435
Vhouston
p8436
sVfailReason
p8437
VFailed because game ended
p8438
sVstartTime
p8439
I144
sVendTime
p8440
I152
ssV_index
p8441
Vevents
p8442
sa(dp8443
V_type
p8444
Vgearplace
p8445
sV_id
p8446
VAVuSuKESirJ1pZWxmKCq
p8447
sV_source
p8448
(dp8449
Vstatus
p8450
VSuccess
p8451
sVmatchPart
p8452
Vautonomous
p8453
sVgameId
p8454
I255
sVteamNumber
p8455
I2478
sVtimeTook
p8456
I12
sVcompetition
p8457
Vhouston
p8458
sVlocation
p8459
VCenter
p8460
sVstartTime
p8461
I2
sVendTime
p8462
I14
ssV_index
p8463
Vevents
p8464
sa(dp8465
V_type
p8466
VchassisFight
p8467
sV_id
p8468
VAVuStBUnirJ1pZWxmKCM
p8469
sV_source
p8470
(dp8471
Vstatus
p8472
VSuccess
p8473
sVmatchPart
p8474
Vteleop
p8475
sVtimeTook
p8476
I5
sVgameId
p8477
I283
sVteamNumber
p8478
I5970
sVinitiated
p8479
I01
sVcompetition
p8480
Vhouston
p8481
sVfailReason
p8482
NsVfightReason
p8483
NsVstartTime
p8484
I103
sVendTime
p8485
I108
ssV_index
p8486
Vevents
p8487
sa(dp8488
V_type
p8489
Vgearplace
p8490
sV_id
p8491
VAVuStR-DirJ1pZWxmKCW
p8492
sV_source
p8493
(dp8494
Vstatus
p8495
VSuccess
p8496
sVmatchPart
p8497
Vteleop
p8498
sVgameId
p8499
I283
sVteamNumber
p8500
I5970
sVtimeTook
p8501
I3
sVcompetition
p8502
Vhouston
p8503
sVlocation
p8504
VLeft
p8505
sVstartTime
p8506
I144
sVendTime
p8507
I147
ssV_index
p8508
Vevents
p8509
sa(dp8510
V_type
p8511
Vgearplace
p8512
sV_id
p8513
VAVuStyV9irJ1pZWxmKCg
p8514
sV_source
p8515
(dp8516
Vstatus
p8517
VSuccess
p8518
sVmatchPart
p8519
Vteleop
p8520
sVgameId
p8521
I284
sVteamNumber
p8522
I3158
sVtimeTook
p8523
I5
sVcompetition
p8524
Vhouston
p8525
sVlocation
p8526
VLeft
p8527
sVstartTime
p8528
I61
sVendTime
p8529
I66
ssV_index
p8530
Vevents
p8531
sa(dp8532
V_type
p8533
Vgearplace
p8534
sV_id
p8535
VAVuSuM_OirJ1pZWxmKCs
p8536
sV_source
p8537
(dp8538
Vstatus
p8539
VSuccess
p8540
sVmatchPart
p8541
Vteleop
p8542
sVgameId
p8543
I279
sVteamNumber
p8544
I585
sVtimeTook
p8545
I21
sVcompetition
p8546
Vhouston
p8547
sVlocation
p8548
VLeft
p8549
sVstartTime
p8550
I20
sVendTime
p8551
I41
ssV_index
p8552
Vevents
p8553
sa(dp8554
V_type
p8555
Vcomment
p8556
sV_id
p8557
VAVuSuBZ7irJ1pZWxmKCn
p8558
sV_source
p8559
(dp8560
Vcontent
p8561
V\u05d9\u05e8\u05d9\u05d4 \u05d8\u05dc\u05d0\u05d5\u05e4\u05d9\u05ea \u05de\u05e7\u05d5 \u05d4\u05d1\u05d5\u05d9\u05dc\u05e8 - 24 \u05de\u05ea\u05d5\u05da 37
p8562
sVtimeTook
p8563
NsVgameId
p8564
I284
sVcompetition
p8565
Vhouston
p8566
sVteamNumber
p8567
I4276
ssV_index
p8568
Vevents
p8569
sa(dp8570
V_type
p8571
Vshooting
p8572
sV_id
p8573
VAVuSvE2RirJ1pZWxmKDN
p8574
sV_source
p8575
(dp8576
Vstatus
p8577
VFailure
p8578
sVmatchPart
p8579
Vteleop
p8580
sVgameId
p8581
I255
sVteamNumber
p8582
I2478
sVtimeTook
p8583
I6
sVcompetition
p8584
Vhouston
p8585
sVfailReason
p8586
VFailed because of mechanical failure
p8587
sVlocation
p8588
VHigh
p8589
sVstartTime
p8590
I102
sVendTime
p8591
I108
ssV_index
p8592
Vevents
p8593
sa(dp8594
V_type
p8595
Vpickup
p8596
sV_id
p8597
VAVuSvHfVirJ1pZWxmKDR
p8598
sV_source
p8599
(dp8600
Vstatus
p8601
VSuccess
p8602
sVmatchPart
p8603
Vteleop
p8604
sVgameId
p8605
I255
sVteamNumber
p8606
I2478
sVtimeTook
p8607
I1
sVcompetition
p8608
Vhouston
p8609
sVlocation
p8610
VHopper
p8611
sVstartTime
p8612
I112
sVendTime
p8613
I113
sVtype
p8614
VBall
p8615
ssV_index
p8616
Vevents
p8617
sa(dp8618
V_type
p8619
Vpickup
p8620
sV_id
p8621
VAVuSu40ZirJ1pZWxmKDE
p8622
sV_source
p8623
(dp8624
Vstatus
p8625
VSuccess
p8626
sVmatchPart
p8627
Vteleop
p8628
sVgameId
p8629
I252
sVteamNumber
p8630
I5614
sVtimeTook
p8631
I3
sVcompetition
p8632
Vhouston
p8633
sVlocation
p8634
VFeeder
p8635
sVstartTime
p8636
I35
sVendTime
p8637
I38
sVtype
p8638
VGear
p8639
ssV_index
p8640
Vevents
p8641
sa(dp8642
V_type
p8643
Vpickup
p8644
sV_id
p8645
VAVuSvMmWirJ1pZWxmKDY
p8646
sV_source
p8647
(dp8648
Vstatus
p8649
VSuccess
p8650
sVmatchPart
p8651
Vteleop
p8652
sVgameId
p8653
I255
sVteamNumber
p8654
I2478
sVtimeTook
p8655
I4
sVcompetition
p8656
Vhouston
p8657
sVlocation
p8658
VFloor
p8659
sVstartTime
p8660
I122
sVendTime
p8661
I126
sVtype
p8662
VBall
p8663
ssV_index
p8664
Vevents
p8665
sa(dp8666
V_type
p8667
Vgearplace
p8668
sV_id
p8669
VAVuSuVljirJ1pZWxmKCw
p8670
sV_source
p8671
(dp8672
Vstatus
p8673
VSuccess
p8674
sVmatchPart
p8675
Vteleop
p8676
sVgameId
p8677
I281
sVteamNumber
p8678
I2468
sVtimeTook
p8679
I4
sVcompetition
p8680
Vhouston
p8681
sVlocation
p8682
VRight
p8683
sVstartTime
p8684
I104
sVendTime
p8685
I108
ssV_index
p8686
Vevents
p8687
sa(dp8688
V_type
p8689
Vshooting
p8690
sV_id
p8691
VAVuSvJnRirJ1pZWxmKDU
p8692
sV_source
p8693
(dp8694
Vstatus
p8695
VSuccess
p8696
sVmatchPart
p8697
Vteleop
p8698
sVgameId
p8699
I255
sVteamNumber
p8700
I2478
sVtimeTook
p8701
I4
sVcompetition
p8702
Vhouston
p8703
sVlocation
p8704
VHigh
p8705
sVstartTime
p8706
I115
sVendTime
p8707
I119
ssV_index
p8708
Vevents
p8709
sa(dp8710
V_type
p8711
Vclimb
p8712
sV_id
p8713
VAVuSvSyCirJ1pZWxmKDf
p8714
sV_source
p8715
(dp8716
Vstatus
p8717
VSuccess
p8718
sVmatchPart
p8719
Vteleop
p8720
sVgameId
p8721
I255
sVteamNumber
p8722
I2478
sVtimeTook
p8723
I12
sVcompetition
p8724
Vhouston
p8725
sVstartTime
p8726
I131
sVendTime
p8727
I143
ssV_index
p8728
Vevents
p8729
sa(dp8730
V_type
p8731
Vclimb
p8732
sV_id
p8733
VAVuSuo3HirJ1pZWxmKC6
p8734
sV_source
p8735
(dp8736
Vstatus
p8737
VSuccess
p8738
sVmatchPart
p8739
Vteleop
p8740
sVgameId
p8741
I284
sVteamNumber
p8742
I4276
sVtimeTook
p8743
I4
sVcompetition
p8744
Vhouston
p8745
sVstartTime
p8746
I141
sVendTime
p8747
I145
ssV_index
p8748
Vevents
p8749
sa(dp8750
V_type
p8751
Vpickup
p8752
sV_id
p8753
VAVuSx8vUirJ1pZWxmKEj
p8754
sV_source
p8755
(dp8756
Vstatus
p8757
VFailure
p8758
sVmatchPart
p8759
Vteleop
p8760
sVgameId
p8761
I287
sVteamNumber
p8762
I4592
sVtimeTook
p8763
I3
sVcompetition
p8764
Vhouston
p8765
sVfailReason
p8766
VFailed because of mechanical failure
p8767
sVlocation
p8768
VFloor
p8769
sVstartTime
p8770
I45
sVendTime
p8771
I48
sVtype
p8772
VGear
p8773
ssV_index
p8774
Vevents
p8775
sa(dp8776
V_type
p8777
Vpickup
p8778
sV_id
p8779
VAVuSzN-_irJ1pZWxmKE9
p8780
sV_source
p8781
(dp8782
Vstatus
p8783
VSuccess
p8784
sVmatchPart
p8785
Vteleop
p8786
sVgameId
p8787
I285
sVteamNumber
p8788
I4060
sVtimeTook
p8789
I4
sVcompetition
p8790
Vhouston
p8791
sVlocation
p8792
VFeeder
p8793
sVstartTime
p8794
I104
sVendTime
p8795
I108
sVtype
p8796
VGear
p8797
ssV_index
p8798
Vevents
p8799
sa(dp8800
V_type
p8801
Vgearplace
p8802
sV_id
p8803
VAVuSwGNWirJ1pZWxmKDu
p8804
sV_source
p8805
(dp8806
Vstatus
p8807
VSuccess
p8808
sVmatchPart
p8809
Vautonomous
p8810
sVgameId
p8811
I255
sVteamNumber
p8812
I4265
sVtimeTook
p8813
I11
sVcompetition
p8814
Vhouston
p8815
sVlocation
p8816
VLeft
p8817
sVstartTime
p8818
I7
sVendTime
p8819
I18
ssV_index
p8820
Vevents
p8821
sa(dp8822
V_type
p8823
Vgearplace
p8824
sV_id
p8825
VAVuSwY8TirJ1pZWxmKD3
p8826
sV_source
p8827
(dp8828
Vstatus
p8829
VSuccess
p8830
sVmatchPart
p8831
Vteleop
p8832
sVgameId
p8833
I279
sVteamNumber
p8834
I5816
sVtimeTook
p8835
I4
sVcompetition
p8836
Vhouston
p8837
sVlocation
p8838
VCenter
p8839
sVstartTime
p8840
I60
sVendTime
p8841
I64
ssV_index
p8842
Vevents
p8843
sa(dp8844
V_type
p8845
Vgearplace
p8846
sV_id
p8847
VAVuSwdVEirJ1pZWxmKD8
p8848
sV_source
p8849
(dp8850
Vstatus
p8851
VSuccess
p8852
sVmatchPart
p8853
Vteleop
p8854
sVgameId
p8855
I255
sVteamNumber
p8856
I4265
sVtimeTook
p8857
I2
sVcompetition
p8858
Vhouston
p8859
sVlocation
p8860
VCenter
p8861
sVstartTime
p8862
I31
sVendTime
p8863
I33
ssV_index
p8864
Vevents
p8865
sa(dp8866
V_type
p8867
Vgearplace
p8868
sV_id
p8869
VAVuSzk_airJ1pZWxmKFD
p8870
sV_source
p8871
(dp8872
Vstatus
p8873
VSuccess
p8874
sVmatchPart
p8875
Vteleop
p8876
sVgameId
p8877
I288
sVteamNumber
p8878
I6705
sVtimeTook
p8879
I4
sVcompetition
p8880
Vhouston
p8881
sVlocation
p8882
VLeft
p8883
sVstartTime
p8884
I41
sVendTime
p8885
I45
ssV_index
p8886
Vevents
p8887
sa(dp8888
V_type
p8889
Vclimb
p8890
sV_id
p8891
VAVuSxUYXirJ1pZWxmKEX
p8892
sV_source
p8893
(dp8894
Vstatus
p8895
VSuccess
p8896
sVmatchPart
p8897
Vteleop
p8898
sVgameId
p8899
I279
sVteamNumber
p8900
I5816
sVtimeTook
p8901
I9
sVcompetition
p8902
Vhouston
p8903
sVstartTime
p8904
I139
sVendTime
p8905
I148
ssV_index
p8906
Vevents
p8907
sa(dp8908
V_type
p8909
Vclimb
p8910
sV_id
p8911
VAVuSysKDirJ1pZWxmKE0
p8912
sV_source
p8913
(dp8914
Vstatus
p8915
VSuccess
p8916
sVmatchPart
p8917
Vteleop
p8918
sVgameId
p8919
I263
sVteamNumber
p8920
I3824
sVtimeTook
p8921
I5
sVcompetition
p8922
Vhouston
p8923
sVstartTime
p8924
I141
sVendTime
p8925
I146
ssV_index
p8926
Vevents
p8927
sa(dp8928
V_type
p8929
Vclimb
p8930
sV_id
p8931
VAVuSwuvoirJ1pZWxmKEH
p8932
sV_source
p8933
(dp8934
Vstatus
p8935
VSuccess
p8936
sVmatchPart
p8937
Vteleop
p8938
sVgameId
p8939
I283
sVteamNumber
p8940
I418
sVtimeTook
p8941
I2
sVcompetition
p8942
Vhouston
p8943
sVstartTime
p8944
I143
sVendTime
p8945
I145
ssV_index
p8946
Vevents
p8947
sa(dp8948
V_type
p8949
Vpickup
p8950
sV_id
p8951
VAVuSz31MirJ1pZWxmKFP
p8952
sV_source
p8953
(dp8954
Vstatus
p8955
VSuccess
p8956
sVmatchPart
p8957
Vteleop
p8958
sVgameId
p8959
I288
sVteamNumber
p8960
I6705
sVtimeTook
p8961
I3
sVcompetition
p8962
Vhouston
p8963
sVlocation
p8964
VFeeder
p8965
sVstartTime
p8966
I111
sVendTime
p8967
I114
sVtype
p8968
VGear
p8969
ssV_index
p8970
Vevents
p8971
sa(dp8972
V_type
p8973
Vpickup
p8974
sV_id
p8975
VAVuSzn6BirJ1pZWxmKFF
p8976
sV_source
p8977
(dp8978
Vstatus
p8979
VSuccess
p8980
sVmatchPart
p8981
Vteleop
p8982
sVgameId
p8983
I288
sVteamNumber
p8984
I6705
sVtimeTook
p8985
I4
sVcompetition
p8986
Vhouston
p8987
sVlocation
p8988
VFeeder
p8989
sVstartTime
p8990
I52
sVendTime
p8991
I56
sVtype
p8992
VGear
p8993
ssV_index
p8994
Vevents
p8995
sa(dp8996
V_type
p8997
Vpickup
p8998
sV_id
p8999
VAVuS0JJ1irJ1pZWxmKFW
p9000
sV_source
p9001
(dp9002
Vstatus
p9003
VSuccess
p9004
sVmatchPart
p9005
Vteleop
p9006
sVgameId
p9007
I285
sVteamNumber
p9008
I1339
sVtimeTook
p9009
I3
sVcompetition
p9010
Vhouston
p9011
sVlocation
p9012
VFloor
p9013
sVstartTime
p9014
I118
sVendTime
p9015
I121
sVtype
p9016
VGear
p9017
ssV_index
p9018
Vevents
p9019
sa(dp9020
V_type
p9021
Vpickup
p9022
sV_id
p9023
VAVuS1YDmirJ1pZWxmKFo
p9024
sV_source
p9025
(dp9026
Vstatus
p9027
VSuccess
p9028
sVmatchPart
p9029
Vteleop
p9030
sVgameId
p9031
I286
sVteamNumber
p9032
I624
sVtimeTook
p9033
I3
sVcompetition
p9034
Vhouston
p9035
sVlocation
p9036
VFeeder
p9037
sVstartTime
p9038
I46
sVendTime
p9039
I49
sVtype
p9040
VGear
p9041
ssV_index
p9042
Vevents
p9043
sa(dp9044
V_type
p9045
Vgearplace
p9046
sV_id
p9047
VAVuS1Kc2irJ1pZWxmKFh
p9048
sV_source
p9049
(dp9050
Vstatus
p9051
VSuccess
p9052
sVmatchPart
p9053
Vautonomous
p9054
sVgameId
p9055
I286
sVteamNumber
p9056
I624
sVtimeTook
p9057
I1
sVcompetition
p9058
Vhouston
p9059
sVlocation
p9060
VLeft
p9061
sVstartTime
p9062
I5
sVendTime
p9063
I6
ssV_index
p9064
Vevents
p9065
sa(dp9066
V_type
p9067
Vgearplace
p9068
sV_id
p9069
VAVuS1u2EirJ1pZWxmKFu
p9070
sV_source
p9071
(dp9072
Vstatus
p9073
VSuccess
p9074
sVmatchPart
p9075
Vteleop
p9076
sVgameId
p9077
I286
sVteamNumber
p9078
I624
sVtimeTook
p9079
I7
sVcompetition
p9080
Vhouston
p9081
sVlocation
p9082
VRight
p9083
sVstartTime
p9084
I80
sVendTime
p9085
I87
ssV_index
p9086
Vevents
p9087
sa(dp9088
V_type
p9089
Vgearplace
p9090
sV_id
p9091
VAVuSzmaEirJ1pZWxmKFE
p9092
sV_source
p9093
(dp9094
Vstatus
p9095
VSuccess
p9096
sVmatchPart
p9097
Vteleop
p9098
sVgameId
p9099
I281
sVteamNumber
p9100
I2881
sVtimeTook
p9101
I10
sVcompetition
p9102
Vhouston
p9103
sVlocation
p9104
VLeft
p9105
sVstartTime
p9106
I20
sVendTime
p9107
I30
ssV_index
p9108
Vevents
p9109
sa(dp9110
V_type
p9111
Vgearplace
p9112
sV_id
p9113
VAVuSz4s-irJ1pZWxmKFQ
p9114
sV_source
p9115
(dp9116
Vstatus
p9117
VSuccess
p9118
sVmatchPart
p9119
Vteleop
p9120
sVgameId
p9121
I288
sVteamNumber
p9122
I6705
sVtimeTook
p9123
I1
sVcompetition
p9124
Vhouston
p9125
sVlocation
p9126
VLeft
p9127
sVstartTime
p9128
I116
sVendTime
p9129
I117
ssV_index
p9130
Vevents
p9131
sa(dp9132
V_type
p9133
Vclimb
p9134
sV_id
p9135
VAVuS0iPAirJ1pZWxmKFe
p9136
sV_source
p9137
(dp9138
Vstatus
p9139
VSuccess
p9140
sVmatchPart
p9141
Vteleop
p9142
sVgameId
p9143
I281
sVteamNumber
p9144
I2881
sVtimeTook
p9145
I7
sVcompetition
p9146
Vhouston
p9147
sVstartTime
p9148
I134
sVendTime
p9149
I141
ssV_index
p9150
Vevents
p9151
sa(dp9152
V_type
p9153
Vpickup
p9154
sV_id
p9155
VAVuS3geVirJ1pZWxmKGC
p9156
sV_source
p9157
(dp9158
Vstatus
p9159
VSuccess
p9160
sVmatchPart
p9161
Vautonomous
p9162
sVgameId
p9163
I288
sVteamNumber
p9164
I1574
sVtimeTook
p9165
I1
sVcompetition
p9166
Vhouston
p9167
sVlocation
p9168
VHopper
p9169
sVstartTime
p9170
I3
sVendTime
p9171
I4
sVtype
p9172
VBall
p9173
ssV_index
p9174
Vevents
p9175
sa(dp9176
V_type
p9177
Vpickup
p9178
sV_id
p9179
VAVuS4uVoirJ1pZWxmKGW
p9180
sV_source
p9181
(dp9182
Vstatus
p9183
VSuccess
p9184
sVmatchPart
p9185
Vteleop
p9186
sVgameId
p9187
I288
sVteamNumber
p9188
I2485
sVtimeTook
p9189
I2
sVcompetition
p9190
Vhouston
p9191
sVlocation
p9192
VFeeder
p9193
sVstartTime
p9194
I94
sVendTime
p9195
I96
sVtype
p9196
VGear
p9197
ssV_index
p9198
Vevents
p9199
sa(dp9200
V_type
p9201
Vpickup
p9202
sV_id
p9203
VAVuS4XIRirJ1pZWxmKGQ
p9204
sV_source
p9205
(dp9206
Vstatus
p9207
VSuccess
p9208
sVmatchPart
p9209
Vteleop
p9210
sVgameId
p9211
I288
sVteamNumber
p9212
I1574
sVtimeTook
p9213
I3
sVcompetition
p9214
Vhouston
p9215
sVlocation
p9216
VFloor
p9217
sVstartTime
p9218
I39
sVendTime
p9219
I42
sVtype
p9220
VGear
p9221
ssV_index
p9222
Vevents
p9223
sa(dp9224
V_type
p9225
Vpickup
p9226
sV_id
p9227
VAVuS6uZTirJ1pZWxmKGv
p9228
sV_source
p9229
(dp9230
Vstatus
p9231
VSuccess
p9232
sVmatchPart
p9233
Vteleop
p9234
sVgameId
p9235
I288
sVteamNumber
p9236
I5803
sVtimeTook
p9237
I1
sVcompetition
p9238
Vhouston
p9239
sVlocation
p9240
VFloor
p9241
sVstartTime
p9242
I91
sVendTime
p9243
I92
sVtype
p9244
VGear
p9245
ssV_index
p9246
Vevents
p9247
sa(dp9248
V_type
p9249
Vgearplace
p9250
sV_id
p9251
VAVuS2VpgirJ1pZWxmKF3
p9252
sV_source
p9253
(dp9254
Vstatus
p9255
VSuccess
p9256
sVmatchPart
p9257
Vteleop
p9258
sVgameId
p9259
I282
sVteamNumber
p9260
I5472
sVtimeTook
p9261
I6
sVcompetition
p9262
Vhouston
p9263
sVlocation
p9264
VLeft
p9265
sVstartTime
p9266
I99
sVendTime
p9267
I105
ssV_index
p9268
Vevents
p9269
sa(dp9270
V_type
p9271
Vgearplace
p9272
sV_id
p9273
VAVuS6xwCirJ1pZWxmKGw
p9274
sV_source
p9275
(dp9276
Vstatus
p9277
VSuccess
p9278
sVmatchPart
p9279
Vteleop
p9280
sVgameId
p9281
I288
sVteamNumber
p9282
I5803
sVtimeTook
p9283
I4
sVcompetition
p9284
Vhouston
p9285
sVlocation
p9286
VLeft
p9287
sVstartTime
p9288
I99
sVendTime
p9289
I103
ssV_index
p9290
Vevents
p9291
sa(dp9292
V_type
p9293
Vshooting
p9294
sV_id
p9295
VAVuS6CWkirJ1pZWxmKGm
p9296
sV_source
p9297
(dp9298
Vstatus
p9299
VSuccess
p9300
sVmatchPart
p9301
Vteleop
p9302
sVgameId
p9303
I288
sVteamNumber
p9304
I1574
sVtimeTook
p9305
I14
sVcompetition
p9306
Vhouston
p9307
sVlocation
p9308
VHigh
p9309
sVstartTime
p9310
I92
sVendTime
p9311
I106
ssV_index
p9312
Vevents
p9313
sa(dp9314
V_type
p9315
Vclimb
p9316
sV_id
p9317
VAVuS2AEEirJ1pZWxmKFz
p9318
sV_source
p9319
(dp9320
Vstatus
p9321
VSuccess
p9322
sVmatchPart
p9323
Vteleop
p9324
sVgameId
p9325
I286
sVteamNumber
p9326
I624
sVtimeTook
p9327
I2
sVcompetition
p9328
Vhouston
p9329
sVstartTime
p9330
I145
sVendTime
p9331
I147
ssV_index
p9332
Vevents
p9333
sa(dp9334
V_type
p9335
Vcomment
p9336
sV_id
p9337
VAVuS5DHgirJ1pZWxmKGd
p9338
sV_source
p9339
(dp9340
Vcontent
p9341
V26 fuels out of 39
p9342
sVtimeTook
p9343
NsVgameId
p9344
I288
sVcompetition
p9345
Vhouston
p9346
sVteamNumber
p9347
I1574
ssV_index
p9348
Vevents
p9349
sas.